
Tuya.elf:     file format elf32-littlearm

Sections:
Idx Name          Size      VMA       LMA       File off  Algn
  0 .isr_vector   000000c0  08000000  08000000  00010000  2**0
                  CONTENTS, ALLOC, LOAD, READONLY, DATA
  1 .text         00004028  080000c0  080000c0  000100c0  2**2
                  CONTENTS, ALLOC, LOAD, READONLY, CODE
  2 .rodata       00000a1c  080040e8  080040e8  000140e8  2**2
                  CONTENTS, ALLOC, LOAD, READONLY, DATA
  3 .ARM.extab    00000000  08004b04  08004b04  0002008c  2**0
                  CONTENTS
  4 .ARM          00000000  08004b04  08004b04  0002008c  2**0
                  CONTENTS
  5 .preinit_array 00000000  08004b04  08004b04  0002008c  2**0
                  CONTENTS, ALLOC, LOAD, DATA
  6 .init_array   00000004  08004b04  08004b04  00014b04  2**2
                  CONTENTS, ALLOC, LOAD, DATA
  7 .fini_array   00000004  08004b08  08004b08  00014b08  2**2
                  CONTENTS, ALLOC, LOAD, DATA
  8 .data         0000008c  20000000  08004b0c  00020000  2**2
                  CONTENTS, ALLOC, LOAD, DATA
  9 .bss          000001ec  2000008c  08004b98  0002008c  2**2
                  ALLOC
 10 ._user_heap_stack 00000600  20000278  08004b98  00020278  2**0
                  ALLOC
 11 .ARM.attributes 00000028  00000000  00000000  0002008c  2**0
                  CONTENTS, READONLY
 12 .comment      00000053  00000000  00000000  000200b4  2**0
                  CONTENTS, READONLY
 13 .debug_frame  0000063c  00000000  00000000  00020108  2**2
                  CONTENTS, READONLY, DEBUGGING, OCTETS

Disassembly of section .text:

080000c0 <__do_global_dtors_aux>:
 80000c0:	b510      	push	{r4, lr}
 80000c2:	4c06      	ldr	r4, [pc, #24]	; (80000dc <__do_global_dtors_aux+0x1c>)
 80000c4:	7823      	ldrb	r3, [r4, #0]
 80000c6:	2b00      	cmp	r3, #0
 80000c8:	d107      	bne.n	80000da <__do_global_dtors_aux+0x1a>
 80000ca:	4b05      	ldr	r3, [pc, #20]	; (80000e0 <__do_global_dtors_aux+0x20>)
 80000cc:	2b00      	cmp	r3, #0
 80000ce:	d002      	beq.n	80000d6 <__do_global_dtors_aux+0x16>
 80000d0:	4804      	ldr	r0, [pc, #16]	; (80000e4 <__do_global_dtors_aux+0x24>)
 80000d2:	e000      	b.n	80000d6 <__do_global_dtors_aux+0x16>
 80000d4:	bf00      	nop
 80000d6:	2301      	movs	r3, #1
 80000d8:	7023      	strb	r3, [r4, #0]
 80000da:	bd10      	pop	{r4, pc}
 80000dc:	2000008c 	.word	0x2000008c
 80000e0:	00000000 	.word	0x00000000
 80000e4:	080040d0 	.word	0x080040d0

080000e8 <frame_dummy>:
 80000e8:	4b04      	ldr	r3, [pc, #16]	; (80000fc <frame_dummy+0x14>)
 80000ea:	b510      	push	{r4, lr}
 80000ec:	2b00      	cmp	r3, #0
 80000ee:	d003      	beq.n	80000f8 <frame_dummy+0x10>
 80000f0:	4903      	ldr	r1, [pc, #12]	; (8000100 <frame_dummy+0x18>)
 80000f2:	4804      	ldr	r0, [pc, #16]	; (8000104 <frame_dummy+0x1c>)
 80000f4:	e000      	b.n	80000f8 <frame_dummy+0x10>
 80000f6:	bf00      	nop
 80000f8:	bd10      	pop	{r4, pc}
 80000fa:	46c0      	nop			; (mov r8, r8)
 80000fc:	00000000 	.word	0x00000000
 8000100:	20000090 	.word	0x20000090
 8000104:	080040d0 	.word	0x080040d0

08000108 <strlen>:
 8000108:	2300      	movs	r3, #0
 800010a:	5cc2      	ldrb	r2, [r0, r3]
 800010c:	3301      	adds	r3, #1
 800010e:	2a00      	cmp	r2, #0
 8000110:	d1fb      	bne.n	800010a <strlen+0x2>
 8000112:	1e58      	subs	r0, r3, #1
 8000114:	4770      	bx	lr
	...

08000118 <__gnu_thumb1_case_uqi>:
 8000118:	b402      	push	{r1}
 800011a:	4671      	mov	r1, lr
 800011c:	0849      	lsrs	r1, r1, #1
 800011e:	0049      	lsls	r1, r1, #1
 8000120:	5c09      	ldrb	r1, [r1, r0]
 8000122:	0049      	lsls	r1, r1, #1
 8000124:	448e      	add	lr, r1
 8000126:	bc02      	pop	{r1}
 8000128:	4770      	bx	lr
 800012a:	46c0      	nop			; (mov r8, r8)

0800012c <__gnu_thumb1_case_shi>:
 800012c:	b403      	push	{r0, r1}
 800012e:	4671      	mov	r1, lr
 8000130:	0849      	lsrs	r1, r1, #1
 8000132:	0040      	lsls	r0, r0, #1
 8000134:	0049      	lsls	r1, r1, #1
 8000136:	5e09      	ldrsh	r1, [r1, r0]
 8000138:	0049      	lsls	r1, r1, #1
 800013a:	448e      	add	lr, r1
 800013c:	bc03      	pop	{r0, r1}
 800013e:	4770      	bx	lr

08000140 <__udivsi3>:
 8000140:	2200      	movs	r2, #0
 8000142:	0843      	lsrs	r3, r0, #1
 8000144:	428b      	cmp	r3, r1
 8000146:	d374      	bcc.n	8000232 <__udivsi3+0xf2>
 8000148:	0903      	lsrs	r3, r0, #4
 800014a:	428b      	cmp	r3, r1
 800014c:	d35f      	bcc.n	800020e <__udivsi3+0xce>
 800014e:	0a03      	lsrs	r3, r0, #8
 8000150:	428b      	cmp	r3, r1
 8000152:	d344      	bcc.n	80001de <__udivsi3+0x9e>
 8000154:	0b03      	lsrs	r3, r0, #12
 8000156:	428b      	cmp	r3, r1
 8000158:	d328      	bcc.n	80001ac <__udivsi3+0x6c>
 800015a:	0c03      	lsrs	r3, r0, #16
 800015c:	428b      	cmp	r3, r1
 800015e:	d30d      	bcc.n	800017c <__udivsi3+0x3c>
 8000160:	22ff      	movs	r2, #255	; 0xff
 8000162:	0209      	lsls	r1, r1, #8
 8000164:	ba12      	rev	r2, r2
 8000166:	0c03      	lsrs	r3, r0, #16
 8000168:	428b      	cmp	r3, r1
 800016a:	d302      	bcc.n	8000172 <__udivsi3+0x32>
 800016c:	1212      	asrs	r2, r2, #8
 800016e:	0209      	lsls	r1, r1, #8
 8000170:	d065      	beq.n	800023e <__udivsi3+0xfe>
 8000172:	0b03      	lsrs	r3, r0, #12
 8000174:	428b      	cmp	r3, r1
 8000176:	d319      	bcc.n	80001ac <__udivsi3+0x6c>
 8000178:	e000      	b.n	800017c <__udivsi3+0x3c>
 800017a:	0a09      	lsrs	r1, r1, #8
 800017c:	0bc3      	lsrs	r3, r0, #15
 800017e:	428b      	cmp	r3, r1
 8000180:	d301      	bcc.n	8000186 <__udivsi3+0x46>
 8000182:	03cb      	lsls	r3, r1, #15
 8000184:	1ac0      	subs	r0, r0, r3
 8000186:	4152      	adcs	r2, r2
 8000188:	0b83      	lsrs	r3, r0, #14
 800018a:	428b      	cmp	r3, r1
 800018c:	d301      	bcc.n	8000192 <__udivsi3+0x52>
 800018e:	038b      	lsls	r3, r1, #14
 8000190:	1ac0      	subs	r0, r0, r3
 8000192:	4152      	adcs	r2, r2
 8000194:	0b43      	lsrs	r3, r0, #13
 8000196:	428b      	cmp	r3, r1
 8000198:	d301      	bcc.n	800019e <__udivsi3+0x5e>
 800019a:	034b      	lsls	r3, r1, #13
 800019c:	1ac0      	subs	r0, r0, r3
 800019e:	4152      	adcs	r2, r2
 80001a0:	0b03      	lsrs	r3, r0, #12
 80001a2:	428b      	cmp	r3, r1
 80001a4:	d301      	bcc.n	80001aa <__udivsi3+0x6a>
 80001a6:	030b      	lsls	r3, r1, #12
 80001a8:	1ac0      	subs	r0, r0, r3
 80001aa:	4152      	adcs	r2, r2
 80001ac:	0ac3      	lsrs	r3, r0, #11
 80001ae:	428b      	cmp	r3, r1
 80001b0:	d301      	bcc.n	80001b6 <__udivsi3+0x76>
 80001b2:	02cb      	lsls	r3, r1, #11
 80001b4:	1ac0      	subs	r0, r0, r3
 80001b6:	4152      	adcs	r2, r2
 80001b8:	0a83      	lsrs	r3, r0, #10
 80001ba:	428b      	cmp	r3, r1
 80001bc:	d301      	bcc.n	80001c2 <__udivsi3+0x82>
 80001be:	028b      	lsls	r3, r1, #10
 80001c0:	1ac0      	subs	r0, r0, r3
 80001c2:	4152      	adcs	r2, r2
 80001c4:	0a43      	lsrs	r3, r0, #9
 80001c6:	428b      	cmp	r3, r1
 80001c8:	d301      	bcc.n	80001ce <__udivsi3+0x8e>
 80001ca:	024b      	lsls	r3, r1, #9
 80001cc:	1ac0      	subs	r0, r0, r3
 80001ce:	4152      	adcs	r2, r2
 80001d0:	0a03      	lsrs	r3, r0, #8
 80001d2:	428b      	cmp	r3, r1
 80001d4:	d301      	bcc.n	80001da <__udivsi3+0x9a>
 80001d6:	020b      	lsls	r3, r1, #8
 80001d8:	1ac0      	subs	r0, r0, r3
 80001da:	4152      	adcs	r2, r2
 80001dc:	d2cd      	bcs.n	800017a <__udivsi3+0x3a>
 80001de:	09c3      	lsrs	r3, r0, #7
 80001e0:	428b      	cmp	r3, r1
 80001e2:	d301      	bcc.n	80001e8 <__udivsi3+0xa8>
 80001e4:	01cb      	lsls	r3, r1, #7
 80001e6:	1ac0      	subs	r0, r0, r3
 80001e8:	4152      	adcs	r2, r2
 80001ea:	0983      	lsrs	r3, r0, #6
 80001ec:	428b      	cmp	r3, r1
 80001ee:	d301      	bcc.n	80001f4 <__udivsi3+0xb4>
 80001f0:	018b      	lsls	r3, r1, #6
 80001f2:	1ac0      	subs	r0, r0, r3
 80001f4:	4152      	adcs	r2, r2
 80001f6:	0943      	lsrs	r3, r0, #5
 80001f8:	428b      	cmp	r3, r1
 80001fa:	d301      	bcc.n	8000200 <__udivsi3+0xc0>
 80001fc:	014b      	lsls	r3, r1, #5
 80001fe:	1ac0      	subs	r0, r0, r3
 8000200:	4152      	adcs	r2, r2
 8000202:	0903      	lsrs	r3, r0, #4
 8000204:	428b      	cmp	r3, r1
 8000206:	d301      	bcc.n	800020c <__udivsi3+0xcc>
 8000208:	010b      	lsls	r3, r1, #4
 800020a:	1ac0      	subs	r0, r0, r3
 800020c:	4152      	adcs	r2, r2
 800020e:	08c3      	lsrs	r3, r0, #3
 8000210:	428b      	cmp	r3, r1
 8000212:	d301      	bcc.n	8000218 <__udivsi3+0xd8>
 8000214:	00cb      	lsls	r3, r1, #3
 8000216:	1ac0      	subs	r0, r0, r3
 8000218:	4152      	adcs	r2, r2
 800021a:	0883      	lsrs	r3, r0, #2
 800021c:	428b      	cmp	r3, r1
 800021e:	d301      	bcc.n	8000224 <__udivsi3+0xe4>
 8000220:	008b      	lsls	r3, r1, #2
 8000222:	1ac0      	subs	r0, r0, r3
 8000224:	4152      	adcs	r2, r2
 8000226:	0843      	lsrs	r3, r0, #1
 8000228:	428b      	cmp	r3, r1
 800022a:	d301      	bcc.n	8000230 <__udivsi3+0xf0>
 800022c:	004b      	lsls	r3, r1, #1
 800022e:	1ac0      	subs	r0, r0, r3
 8000230:	4152      	adcs	r2, r2
 8000232:	1a41      	subs	r1, r0, r1
 8000234:	d200      	bcs.n	8000238 <__udivsi3+0xf8>
 8000236:	4601      	mov	r1, r0
 8000238:	4152      	adcs	r2, r2
 800023a:	4610      	mov	r0, r2
 800023c:	4770      	bx	lr
 800023e:	e7ff      	b.n	8000240 <__udivsi3+0x100>
 8000240:	b501      	push	{r0, lr}
 8000242:	2000      	movs	r0, #0
 8000244:	f000 f806 	bl	8000254 <__aeabi_idiv0>
 8000248:	bd02      	pop	{r1, pc}
 800024a:	46c0      	nop			; (mov r8, r8)

0800024c <__aeabi_uidivmod>:
 800024c:	2900      	cmp	r1, #0
 800024e:	d0f7      	beq.n	8000240 <__udivsi3+0x100>
 8000250:	e776      	b.n	8000140 <__udivsi3>
 8000252:	4770      	bx	lr

08000254 <__aeabi_idiv0>:
 8000254:	4770      	bx	lr
 8000256:	46c0      	nop			; (mov r8, r8)

08000258 <__aeabi_f2uiz>:
 8000258:	219e      	movs	r1, #158	; 0x9e
 800025a:	b510      	push	{r4, lr}
 800025c:	05c9      	lsls	r1, r1, #23
 800025e:	1c04      	adds	r4, r0, #0
 8000260:	f000 fcd2 	bl	8000c08 <__aeabi_fcmpge>
 8000264:	2800      	cmp	r0, #0
 8000266:	d103      	bne.n	8000270 <__aeabi_f2uiz+0x18>
 8000268:	1c20      	adds	r0, r4, #0
 800026a:	f000 fbfb 	bl	8000a64 <__aeabi_f2iz>
 800026e:	bd10      	pop	{r4, pc}
 8000270:	219e      	movs	r1, #158	; 0x9e
 8000272:	1c20      	adds	r0, r4, #0
 8000274:	05c9      	lsls	r1, r1, #23
 8000276:	f000 fa2d 	bl	80006d4 <__aeabi_fsub>
 800027a:	f000 fbf3 	bl	8000a64 <__aeabi_f2iz>
 800027e:	2380      	movs	r3, #128	; 0x80
 8000280:	061b      	lsls	r3, r3, #24
 8000282:	469c      	mov	ip, r3
 8000284:	4460      	add	r0, ip
 8000286:	e7f2      	b.n	800026e <__aeabi_f2uiz+0x16>

08000288 <__aeabi_fdiv>:
 8000288:	b5f0      	push	{r4, r5, r6, r7, lr}
 800028a:	464f      	mov	r7, r9
 800028c:	4646      	mov	r6, r8
 800028e:	46d6      	mov	lr, sl
 8000290:	0245      	lsls	r5, r0, #9
 8000292:	b5c0      	push	{r6, r7, lr}
 8000294:	0047      	lsls	r7, r0, #1
 8000296:	1c0c      	adds	r4, r1, #0
 8000298:	0a6d      	lsrs	r5, r5, #9
 800029a:	0e3f      	lsrs	r7, r7, #24
 800029c:	0fc6      	lsrs	r6, r0, #31
 800029e:	2f00      	cmp	r7, #0
 80002a0:	d066      	beq.n	8000370 <__aeabi_fdiv+0xe8>
 80002a2:	2fff      	cmp	r7, #255	; 0xff
 80002a4:	d06c      	beq.n	8000380 <__aeabi_fdiv+0xf8>
 80002a6:	2300      	movs	r3, #0
 80002a8:	00ea      	lsls	r2, r5, #3
 80002aa:	2580      	movs	r5, #128	; 0x80
 80002ac:	4699      	mov	r9, r3
 80002ae:	469a      	mov	sl, r3
 80002b0:	04ed      	lsls	r5, r5, #19
 80002b2:	4315      	orrs	r5, r2
 80002b4:	3f7f      	subs	r7, #127	; 0x7f
 80002b6:	0260      	lsls	r0, r4, #9
 80002b8:	0061      	lsls	r1, r4, #1
 80002ba:	0a43      	lsrs	r3, r0, #9
 80002bc:	4698      	mov	r8, r3
 80002be:	0e09      	lsrs	r1, r1, #24
 80002c0:	0fe4      	lsrs	r4, r4, #31
 80002c2:	2900      	cmp	r1, #0
 80002c4:	d048      	beq.n	8000358 <__aeabi_fdiv+0xd0>
 80002c6:	29ff      	cmp	r1, #255	; 0xff
 80002c8:	d010      	beq.n	80002ec <__aeabi_fdiv+0x64>
 80002ca:	2280      	movs	r2, #128	; 0x80
 80002cc:	00d8      	lsls	r0, r3, #3
 80002ce:	04d2      	lsls	r2, r2, #19
 80002d0:	4302      	orrs	r2, r0
 80002d2:	4690      	mov	r8, r2
 80002d4:	2000      	movs	r0, #0
 80002d6:	397f      	subs	r1, #127	; 0x7f
 80002d8:	464a      	mov	r2, r9
 80002da:	0033      	movs	r3, r6
 80002dc:	1a7f      	subs	r7, r7, r1
 80002de:	4302      	orrs	r2, r0
 80002e0:	496c      	ldr	r1, [pc, #432]	; (8000494 <__aeabi_fdiv+0x20c>)
 80002e2:	0092      	lsls	r2, r2, #2
 80002e4:	588a      	ldr	r2, [r1, r2]
 80002e6:	4063      	eors	r3, r4
 80002e8:	b2db      	uxtb	r3, r3
 80002ea:	4697      	mov	pc, r2
 80002ec:	2b00      	cmp	r3, #0
 80002ee:	d16d      	bne.n	80003cc <__aeabi_fdiv+0x144>
 80002f0:	2002      	movs	r0, #2
 80002f2:	3fff      	subs	r7, #255	; 0xff
 80002f4:	e033      	b.n	800035e <__aeabi_fdiv+0xd6>
 80002f6:	2300      	movs	r3, #0
 80002f8:	4698      	mov	r8, r3
 80002fa:	0026      	movs	r6, r4
 80002fc:	4645      	mov	r5, r8
 80002fe:	4682      	mov	sl, r0
 8000300:	4653      	mov	r3, sl
 8000302:	2b02      	cmp	r3, #2
 8000304:	d100      	bne.n	8000308 <__aeabi_fdiv+0x80>
 8000306:	e07f      	b.n	8000408 <__aeabi_fdiv+0x180>
 8000308:	2b03      	cmp	r3, #3
 800030a:	d100      	bne.n	800030e <__aeabi_fdiv+0x86>
 800030c:	e094      	b.n	8000438 <__aeabi_fdiv+0x1b0>
 800030e:	2b01      	cmp	r3, #1
 8000310:	d017      	beq.n	8000342 <__aeabi_fdiv+0xba>
 8000312:	0038      	movs	r0, r7
 8000314:	307f      	adds	r0, #127	; 0x7f
 8000316:	2800      	cmp	r0, #0
 8000318:	dd5f      	ble.n	80003da <__aeabi_fdiv+0x152>
 800031a:	076b      	lsls	r3, r5, #29
 800031c:	d004      	beq.n	8000328 <__aeabi_fdiv+0xa0>
 800031e:	230f      	movs	r3, #15
 8000320:	402b      	ands	r3, r5
 8000322:	2b04      	cmp	r3, #4
 8000324:	d000      	beq.n	8000328 <__aeabi_fdiv+0xa0>
 8000326:	3504      	adds	r5, #4
 8000328:	012b      	lsls	r3, r5, #4
 800032a:	d503      	bpl.n	8000334 <__aeabi_fdiv+0xac>
 800032c:	0038      	movs	r0, r7
 800032e:	4b5a      	ldr	r3, [pc, #360]	; (8000498 <__aeabi_fdiv+0x210>)
 8000330:	3080      	adds	r0, #128	; 0x80
 8000332:	401d      	ands	r5, r3
 8000334:	28fe      	cmp	r0, #254	; 0xfe
 8000336:	dc67      	bgt.n	8000408 <__aeabi_fdiv+0x180>
 8000338:	01ad      	lsls	r5, r5, #6
 800033a:	0a6d      	lsrs	r5, r5, #9
 800033c:	b2c0      	uxtb	r0, r0
 800033e:	e002      	b.n	8000346 <__aeabi_fdiv+0xbe>
 8000340:	001e      	movs	r6, r3
 8000342:	2000      	movs	r0, #0
 8000344:	2500      	movs	r5, #0
 8000346:	05c0      	lsls	r0, r0, #23
 8000348:	4328      	orrs	r0, r5
 800034a:	07f6      	lsls	r6, r6, #31
 800034c:	4330      	orrs	r0, r6
 800034e:	bce0      	pop	{r5, r6, r7}
 8000350:	46ba      	mov	sl, r7
 8000352:	46b1      	mov	r9, r6
 8000354:	46a8      	mov	r8, r5
 8000356:	bdf0      	pop	{r4, r5, r6, r7, pc}
 8000358:	2b00      	cmp	r3, #0
 800035a:	d12b      	bne.n	80003b4 <__aeabi_fdiv+0x12c>
 800035c:	2001      	movs	r0, #1
 800035e:	464a      	mov	r2, r9
 8000360:	0033      	movs	r3, r6
 8000362:	494e      	ldr	r1, [pc, #312]	; (800049c <__aeabi_fdiv+0x214>)
 8000364:	4302      	orrs	r2, r0
 8000366:	0092      	lsls	r2, r2, #2
 8000368:	588a      	ldr	r2, [r1, r2]
 800036a:	4063      	eors	r3, r4
 800036c:	b2db      	uxtb	r3, r3
 800036e:	4697      	mov	pc, r2
 8000370:	2d00      	cmp	r5, #0
 8000372:	d113      	bne.n	800039c <__aeabi_fdiv+0x114>
 8000374:	2304      	movs	r3, #4
 8000376:	4699      	mov	r9, r3
 8000378:	3b03      	subs	r3, #3
 800037a:	2700      	movs	r7, #0
 800037c:	469a      	mov	sl, r3
 800037e:	e79a      	b.n	80002b6 <__aeabi_fdiv+0x2e>
 8000380:	2d00      	cmp	r5, #0
 8000382:	d105      	bne.n	8000390 <__aeabi_fdiv+0x108>
 8000384:	2308      	movs	r3, #8
 8000386:	4699      	mov	r9, r3
 8000388:	3b06      	subs	r3, #6
 800038a:	27ff      	movs	r7, #255	; 0xff
 800038c:	469a      	mov	sl, r3
 800038e:	e792      	b.n	80002b6 <__aeabi_fdiv+0x2e>
 8000390:	230c      	movs	r3, #12
 8000392:	4699      	mov	r9, r3
 8000394:	3b09      	subs	r3, #9
 8000396:	27ff      	movs	r7, #255	; 0xff
 8000398:	469a      	mov	sl, r3
 800039a:	e78c      	b.n	80002b6 <__aeabi_fdiv+0x2e>
 800039c:	0028      	movs	r0, r5
 800039e:	f000 fc3d 	bl	8000c1c <__clzsi2>
 80003a2:	2776      	movs	r7, #118	; 0x76
 80003a4:	1f43      	subs	r3, r0, #5
 80003a6:	409d      	lsls	r5, r3
 80003a8:	2300      	movs	r3, #0
 80003aa:	427f      	negs	r7, r7
 80003ac:	4699      	mov	r9, r3
 80003ae:	469a      	mov	sl, r3
 80003b0:	1a3f      	subs	r7, r7, r0
 80003b2:	e780      	b.n	80002b6 <__aeabi_fdiv+0x2e>
 80003b4:	0018      	movs	r0, r3
 80003b6:	f000 fc31 	bl	8000c1c <__clzsi2>
 80003ba:	4642      	mov	r2, r8
 80003bc:	1f43      	subs	r3, r0, #5
 80003be:	2176      	movs	r1, #118	; 0x76
 80003c0:	409a      	lsls	r2, r3
 80003c2:	4249      	negs	r1, r1
 80003c4:	1a09      	subs	r1, r1, r0
 80003c6:	4690      	mov	r8, r2
 80003c8:	2000      	movs	r0, #0
 80003ca:	e785      	b.n	80002d8 <__aeabi_fdiv+0x50>
 80003cc:	21ff      	movs	r1, #255	; 0xff
 80003ce:	2003      	movs	r0, #3
 80003d0:	e782      	b.n	80002d8 <__aeabi_fdiv+0x50>
 80003d2:	001e      	movs	r6, r3
 80003d4:	20ff      	movs	r0, #255	; 0xff
 80003d6:	2500      	movs	r5, #0
 80003d8:	e7b5      	b.n	8000346 <__aeabi_fdiv+0xbe>
 80003da:	2301      	movs	r3, #1
 80003dc:	1a1b      	subs	r3, r3, r0
 80003de:	2b1b      	cmp	r3, #27
 80003e0:	dcaf      	bgt.n	8000342 <__aeabi_fdiv+0xba>
 80003e2:	379e      	adds	r7, #158	; 0x9e
 80003e4:	0029      	movs	r1, r5
 80003e6:	40bd      	lsls	r5, r7
 80003e8:	40d9      	lsrs	r1, r3
 80003ea:	1e6a      	subs	r2, r5, #1
 80003ec:	4195      	sbcs	r5, r2
 80003ee:	430d      	orrs	r5, r1
 80003f0:	076b      	lsls	r3, r5, #29
 80003f2:	d004      	beq.n	80003fe <__aeabi_fdiv+0x176>
 80003f4:	230f      	movs	r3, #15
 80003f6:	402b      	ands	r3, r5
 80003f8:	2b04      	cmp	r3, #4
 80003fa:	d000      	beq.n	80003fe <__aeabi_fdiv+0x176>
 80003fc:	3504      	adds	r5, #4
 80003fe:	016b      	lsls	r3, r5, #5
 8000400:	d544      	bpl.n	800048c <__aeabi_fdiv+0x204>
 8000402:	2001      	movs	r0, #1
 8000404:	2500      	movs	r5, #0
 8000406:	e79e      	b.n	8000346 <__aeabi_fdiv+0xbe>
 8000408:	20ff      	movs	r0, #255	; 0xff
 800040a:	2500      	movs	r5, #0
 800040c:	e79b      	b.n	8000346 <__aeabi_fdiv+0xbe>
 800040e:	2580      	movs	r5, #128	; 0x80
 8000410:	2600      	movs	r6, #0
 8000412:	20ff      	movs	r0, #255	; 0xff
 8000414:	03ed      	lsls	r5, r5, #15
 8000416:	e796      	b.n	8000346 <__aeabi_fdiv+0xbe>
 8000418:	2300      	movs	r3, #0
 800041a:	4698      	mov	r8, r3
 800041c:	2080      	movs	r0, #128	; 0x80
 800041e:	03c0      	lsls	r0, r0, #15
 8000420:	4205      	tst	r5, r0
 8000422:	d009      	beq.n	8000438 <__aeabi_fdiv+0x1b0>
 8000424:	4643      	mov	r3, r8
 8000426:	4203      	tst	r3, r0
 8000428:	d106      	bne.n	8000438 <__aeabi_fdiv+0x1b0>
 800042a:	4645      	mov	r5, r8
 800042c:	4305      	orrs	r5, r0
 800042e:	026d      	lsls	r5, r5, #9
 8000430:	0026      	movs	r6, r4
 8000432:	20ff      	movs	r0, #255	; 0xff
 8000434:	0a6d      	lsrs	r5, r5, #9
 8000436:	e786      	b.n	8000346 <__aeabi_fdiv+0xbe>
 8000438:	2080      	movs	r0, #128	; 0x80
 800043a:	03c0      	lsls	r0, r0, #15
 800043c:	4305      	orrs	r5, r0
 800043e:	026d      	lsls	r5, r5, #9
 8000440:	20ff      	movs	r0, #255	; 0xff
 8000442:	0a6d      	lsrs	r5, r5, #9
 8000444:	e77f      	b.n	8000346 <__aeabi_fdiv+0xbe>
 8000446:	4641      	mov	r1, r8
 8000448:	016a      	lsls	r2, r5, #5
 800044a:	0148      	lsls	r0, r1, #5
 800044c:	4282      	cmp	r2, r0
 800044e:	d219      	bcs.n	8000484 <__aeabi_fdiv+0x1fc>
 8000450:	211b      	movs	r1, #27
 8000452:	2500      	movs	r5, #0
 8000454:	3f01      	subs	r7, #1
 8000456:	2601      	movs	r6, #1
 8000458:	0014      	movs	r4, r2
 800045a:	006d      	lsls	r5, r5, #1
 800045c:	0052      	lsls	r2, r2, #1
 800045e:	2c00      	cmp	r4, #0
 8000460:	db01      	blt.n	8000466 <__aeabi_fdiv+0x1de>
 8000462:	4290      	cmp	r0, r2
 8000464:	d801      	bhi.n	800046a <__aeabi_fdiv+0x1e2>
 8000466:	1a12      	subs	r2, r2, r0
 8000468:	4335      	orrs	r5, r6
 800046a:	3901      	subs	r1, #1
 800046c:	2900      	cmp	r1, #0
 800046e:	d1f3      	bne.n	8000458 <__aeabi_fdiv+0x1d0>
 8000470:	1e50      	subs	r0, r2, #1
 8000472:	4182      	sbcs	r2, r0
 8000474:	0038      	movs	r0, r7
 8000476:	307f      	adds	r0, #127	; 0x7f
 8000478:	001e      	movs	r6, r3
 800047a:	4315      	orrs	r5, r2
 800047c:	2800      	cmp	r0, #0
 800047e:	dd00      	ble.n	8000482 <__aeabi_fdiv+0x1fa>
 8000480:	e74b      	b.n	800031a <__aeabi_fdiv+0x92>
 8000482:	e7aa      	b.n	80003da <__aeabi_fdiv+0x152>
 8000484:	211a      	movs	r1, #26
 8000486:	2501      	movs	r5, #1
 8000488:	1a12      	subs	r2, r2, r0
 800048a:	e7e4      	b.n	8000456 <__aeabi_fdiv+0x1ce>
 800048c:	01ad      	lsls	r5, r5, #6
 800048e:	2000      	movs	r0, #0
 8000490:	0a6d      	lsrs	r5, r5, #9
 8000492:	e758      	b.n	8000346 <__aeabi_fdiv+0xbe>
 8000494:	080040e8 	.word	0x080040e8
 8000498:	f7ffffff 	.word	0xf7ffffff
 800049c:	08004128 	.word	0x08004128

080004a0 <__aeabi_fmul>:
 80004a0:	b5f8      	push	{r3, r4, r5, r6, r7, lr}
 80004a2:	4657      	mov	r7, sl
 80004a4:	464e      	mov	r6, r9
 80004a6:	4645      	mov	r5, r8
 80004a8:	46de      	mov	lr, fp
 80004aa:	0244      	lsls	r4, r0, #9
 80004ac:	b5e0      	push	{r5, r6, r7, lr}
 80004ae:	0045      	lsls	r5, r0, #1
 80004b0:	1c0f      	adds	r7, r1, #0
 80004b2:	0a64      	lsrs	r4, r4, #9
 80004b4:	0e2d      	lsrs	r5, r5, #24
 80004b6:	0fc6      	lsrs	r6, r0, #31
 80004b8:	2d00      	cmp	r5, #0
 80004ba:	d047      	beq.n	800054c <__aeabi_fmul+0xac>
 80004bc:	2dff      	cmp	r5, #255	; 0xff
 80004be:	d04d      	beq.n	800055c <__aeabi_fmul+0xbc>
 80004c0:	2300      	movs	r3, #0
 80004c2:	2080      	movs	r0, #128	; 0x80
 80004c4:	469a      	mov	sl, r3
 80004c6:	469b      	mov	fp, r3
 80004c8:	00e4      	lsls	r4, r4, #3
 80004ca:	04c0      	lsls	r0, r0, #19
 80004cc:	4304      	orrs	r4, r0
 80004ce:	3d7f      	subs	r5, #127	; 0x7f
 80004d0:	0278      	lsls	r0, r7, #9
 80004d2:	0a43      	lsrs	r3, r0, #9
 80004d4:	4699      	mov	r9, r3
 80004d6:	007a      	lsls	r2, r7, #1
 80004d8:	0ffb      	lsrs	r3, r7, #31
 80004da:	4698      	mov	r8, r3
 80004dc:	0e12      	lsrs	r2, r2, #24
 80004de:	464b      	mov	r3, r9
 80004e0:	d044      	beq.n	800056c <__aeabi_fmul+0xcc>
 80004e2:	2aff      	cmp	r2, #255	; 0xff
 80004e4:	d011      	beq.n	800050a <__aeabi_fmul+0x6a>
 80004e6:	00d8      	lsls	r0, r3, #3
 80004e8:	2380      	movs	r3, #128	; 0x80
 80004ea:	04db      	lsls	r3, r3, #19
 80004ec:	4303      	orrs	r3, r0
 80004ee:	4699      	mov	r9, r3
 80004f0:	2000      	movs	r0, #0
 80004f2:	3a7f      	subs	r2, #127	; 0x7f
 80004f4:	18ad      	adds	r5, r5, r2
 80004f6:	4647      	mov	r7, r8
 80004f8:	4653      	mov	r3, sl
 80004fa:	4077      	eors	r7, r6
 80004fc:	1c69      	adds	r1, r5, #1
 80004fe:	2b0f      	cmp	r3, #15
 8000500:	d83f      	bhi.n	8000582 <__aeabi_fmul+0xe2>
 8000502:	4a72      	ldr	r2, [pc, #456]	; (80006cc <__aeabi_fmul+0x22c>)
 8000504:	009b      	lsls	r3, r3, #2
 8000506:	58d3      	ldr	r3, [r2, r3]
 8000508:	469f      	mov	pc, r3
 800050a:	35ff      	adds	r5, #255	; 0xff
 800050c:	2b00      	cmp	r3, #0
 800050e:	d000      	beq.n	8000512 <__aeabi_fmul+0x72>
 8000510:	e079      	b.n	8000606 <__aeabi_fmul+0x166>
 8000512:	4652      	mov	r2, sl
 8000514:	2302      	movs	r3, #2
 8000516:	431a      	orrs	r2, r3
 8000518:	4692      	mov	sl, r2
 800051a:	2002      	movs	r0, #2
 800051c:	e7eb      	b.n	80004f6 <__aeabi_fmul+0x56>
 800051e:	4647      	mov	r7, r8
 8000520:	464c      	mov	r4, r9
 8000522:	4683      	mov	fp, r0
 8000524:	465b      	mov	r3, fp
 8000526:	2b02      	cmp	r3, #2
 8000528:	d028      	beq.n	800057c <__aeabi_fmul+0xdc>
 800052a:	2b03      	cmp	r3, #3
 800052c:	d100      	bne.n	8000530 <__aeabi_fmul+0x90>
 800052e:	e0c6      	b.n	80006be <__aeabi_fmul+0x21e>
 8000530:	2b01      	cmp	r3, #1
 8000532:	d14f      	bne.n	80005d4 <__aeabi_fmul+0x134>
 8000534:	2000      	movs	r0, #0
 8000536:	2400      	movs	r4, #0
 8000538:	05c0      	lsls	r0, r0, #23
 800053a:	07ff      	lsls	r7, r7, #31
 800053c:	4320      	orrs	r0, r4
 800053e:	4338      	orrs	r0, r7
 8000540:	bcf0      	pop	{r4, r5, r6, r7}
 8000542:	46bb      	mov	fp, r7
 8000544:	46b2      	mov	sl, r6
 8000546:	46a9      	mov	r9, r5
 8000548:	46a0      	mov	r8, r4
 800054a:	bdf8      	pop	{r3, r4, r5, r6, r7, pc}
 800054c:	2c00      	cmp	r4, #0
 800054e:	d171      	bne.n	8000634 <__aeabi_fmul+0x194>
 8000550:	2304      	movs	r3, #4
 8000552:	469a      	mov	sl, r3
 8000554:	3b03      	subs	r3, #3
 8000556:	2500      	movs	r5, #0
 8000558:	469b      	mov	fp, r3
 800055a:	e7b9      	b.n	80004d0 <__aeabi_fmul+0x30>
 800055c:	2c00      	cmp	r4, #0
 800055e:	d163      	bne.n	8000628 <__aeabi_fmul+0x188>
 8000560:	2308      	movs	r3, #8
 8000562:	469a      	mov	sl, r3
 8000564:	3b06      	subs	r3, #6
 8000566:	25ff      	movs	r5, #255	; 0xff
 8000568:	469b      	mov	fp, r3
 800056a:	e7b1      	b.n	80004d0 <__aeabi_fmul+0x30>
 800056c:	2b00      	cmp	r3, #0
 800056e:	d150      	bne.n	8000612 <__aeabi_fmul+0x172>
 8000570:	4652      	mov	r2, sl
 8000572:	3301      	adds	r3, #1
 8000574:	431a      	orrs	r2, r3
 8000576:	4692      	mov	sl, r2
 8000578:	2001      	movs	r0, #1
 800057a:	e7bc      	b.n	80004f6 <__aeabi_fmul+0x56>
 800057c:	20ff      	movs	r0, #255	; 0xff
 800057e:	2400      	movs	r4, #0
 8000580:	e7da      	b.n	8000538 <__aeabi_fmul+0x98>
 8000582:	4648      	mov	r0, r9
 8000584:	0c26      	lsrs	r6, r4, #16
 8000586:	0424      	lsls	r4, r4, #16
 8000588:	0c22      	lsrs	r2, r4, #16
 800058a:	0404      	lsls	r4, r0, #16
 800058c:	0c24      	lsrs	r4, r4, #16
 800058e:	464b      	mov	r3, r9
 8000590:	0020      	movs	r0, r4
 8000592:	0c1b      	lsrs	r3, r3, #16
 8000594:	4350      	muls	r0, r2
 8000596:	4374      	muls	r4, r6
 8000598:	435a      	muls	r2, r3
 800059a:	435e      	muls	r6, r3
 800059c:	1912      	adds	r2, r2, r4
 800059e:	0c03      	lsrs	r3, r0, #16
 80005a0:	189b      	adds	r3, r3, r2
 80005a2:	429c      	cmp	r4, r3
 80005a4:	d903      	bls.n	80005ae <__aeabi_fmul+0x10e>
 80005a6:	2280      	movs	r2, #128	; 0x80
 80005a8:	0252      	lsls	r2, r2, #9
 80005aa:	4694      	mov	ip, r2
 80005ac:	4466      	add	r6, ip
 80005ae:	0400      	lsls	r0, r0, #16
 80005b0:	041a      	lsls	r2, r3, #16
 80005b2:	0c00      	lsrs	r0, r0, #16
 80005b4:	1812      	adds	r2, r2, r0
 80005b6:	0194      	lsls	r4, r2, #6
 80005b8:	1e60      	subs	r0, r4, #1
 80005ba:	4184      	sbcs	r4, r0
 80005bc:	0c1b      	lsrs	r3, r3, #16
 80005be:	0e92      	lsrs	r2, r2, #26
 80005c0:	199b      	adds	r3, r3, r6
 80005c2:	4314      	orrs	r4, r2
 80005c4:	019b      	lsls	r3, r3, #6
 80005c6:	431c      	orrs	r4, r3
 80005c8:	011b      	lsls	r3, r3, #4
 80005ca:	d572      	bpl.n	80006b2 <__aeabi_fmul+0x212>
 80005cc:	2001      	movs	r0, #1
 80005ce:	0863      	lsrs	r3, r4, #1
 80005d0:	4004      	ands	r4, r0
 80005d2:	431c      	orrs	r4, r3
 80005d4:	0008      	movs	r0, r1
 80005d6:	307f      	adds	r0, #127	; 0x7f
 80005d8:	2800      	cmp	r0, #0
 80005da:	dd3c      	ble.n	8000656 <__aeabi_fmul+0x1b6>
 80005dc:	0763      	lsls	r3, r4, #29
 80005de:	d004      	beq.n	80005ea <__aeabi_fmul+0x14a>
 80005e0:	230f      	movs	r3, #15
 80005e2:	4023      	ands	r3, r4
 80005e4:	2b04      	cmp	r3, #4
 80005e6:	d000      	beq.n	80005ea <__aeabi_fmul+0x14a>
 80005e8:	3404      	adds	r4, #4
 80005ea:	0123      	lsls	r3, r4, #4
 80005ec:	d503      	bpl.n	80005f6 <__aeabi_fmul+0x156>
 80005ee:	3180      	adds	r1, #128	; 0x80
 80005f0:	0008      	movs	r0, r1
 80005f2:	4b37      	ldr	r3, [pc, #220]	; (80006d0 <__aeabi_fmul+0x230>)
 80005f4:	401c      	ands	r4, r3
 80005f6:	28fe      	cmp	r0, #254	; 0xfe
 80005f8:	dcc0      	bgt.n	800057c <__aeabi_fmul+0xdc>
 80005fa:	01a4      	lsls	r4, r4, #6
 80005fc:	0a64      	lsrs	r4, r4, #9
 80005fe:	b2c0      	uxtb	r0, r0
 8000600:	e79a      	b.n	8000538 <__aeabi_fmul+0x98>
 8000602:	0037      	movs	r7, r6
 8000604:	e78e      	b.n	8000524 <__aeabi_fmul+0x84>
 8000606:	4652      	mov	r2, sl
 8000608:	2303      	movs	r3, #3
 800060a:	431a      	orrs	r2, r3
 800060c:	4692      	mov	sl, r2
 800060e:	2003      	movs	r0, #3
 8000610:	e771      	b.n	80004f6 <__aeabi_fmul+0x56>
 8000612:	4648      	mov	r0, r9
 8000614:	f000 fb02 	bl	8000c1c <__clzsi2>
 8000618:	464a      	mov	r2, r9
 800061a:	1f43      	subs	r3, r0, #5
 800061c:	409a      	lsls	r2, r3
 800061e:	1a2d      	subs	r5, r5, r0
 8000620:	4691      	mov	r9, r2
 8000622:	2000      	movs	r0, #0
 8000624:	3d76      	subs	r5, #118	; 0x76
 8000626:	e766      	b.n	80004f6 <__aeabi_fmul+0x56>
 8000628:	230c      	movs	r3, #12
 800062a:	469a      	mov	sl, r3
 800062c:	3b09      	subs	r3, #9
 800062e:	25ff      	movs	r5, #255	; 0xff
 8000630:	469b      	mov	fp, r3
 8000632:	e74d      	b.n	80004d0 <__aeabi_fmul+0x30>
 8000634:	0020      	movs	r0, r4
 8000636:	f000 faf1 	bl	8000c1c <__clzsi2>
 800063a:	2576      	movs	r5, #118	; 0x76
 800063c:	1f43      	subs	r3, r0, #5
 800063e:	409c      	lsls	r4, r3
 8000640:	2300      	movs	r3, #0
 8000642:	426d      	negs	r5, r5
 8000644:	469a      	mov	sl, r3
 8000646:	469b      	mov	fp, r3
 8000648:	1a2d      	subs	r5, r5, r0
 800064a:	e741      	b.n	80004d0 <__aeabi_fmul+0x30>
 800064c:	2480      	movs	r4, #128	; 0x80
 800064e:	2700      	movs	r7, #0
 8000650:	20ff      	movs	r0, #255	; 0xff
 8000652:	03e4      	lsls	r4, r4, #15
 8000654:	e770      	b.n	8000538 <__aeabi_fmul+0x98>
 8000656:	2301      	movs	r3, #1
 8000658:	1a1b      	subs	r3, r3, r0
 800065a:	2b1b      	cmp	r3, #27
 800065c:	dd00      	ble.n	8000660 <__aeabi_fmul+0x1c0>
 800065e:	e769      	b.n	8000534 <__aeabi_fmul+0x94>
 8000660:	319e      	adds	r1, #158	; 0x9e
 8000662:	0020      	movs	r0, r4
 8000664:	408c      	lsls	r4, r1
 8000666:	40d8      	lsrs	r0, r3
 8000668:	1e63      	subs	r3, r4, #1
 800066a:	419c      	sbcs	r4, r3
 800066c:	4304      	orrs	r4, r0
 800066e:	0763      	lsls	r3, r4, #29
 8000670:	d004      	beq.n	800067c <__aeabi_fmul+0x1dc>
 8000672:	230f      	movs	r3, #15
 8000674:	4023      	ands	r3, r4
 8000676:	2b04      	cmp	r3, #4
 8000678:	d000      	beq.n	800067c <__aeabi_fmul+0x1dc>
 800067a:	3404      	adds	r4, #4
 800067c:	0163      	lsls	r3, r4, #5
 800067e:	d51a      	bpl.n	80006b6 <__aeabi_fmul+0x216>
 8000680:	2001      	movs	r0, #1
 8000682:	2400      	movs	r4, #0
 8000684:	e758      	b.n	8000538 <__aeabi_fmul+0x98>
 8000686:	2080      	movs	r0, #128	; 0x80
 8000688:	03c0      	lsls	r0, r0, #15
 800068a:	4204      	tst	r4, r0
 800068c:	d009      	beq.n	80006a2 <__aeabi_fmul+0x202>
 800068e:	464b      	mov	r3, r9
 8000690:	4203      	tst	r3, r0
 8000692:	d106      	bne.n	80006a2 <__aeabi_fmul+0x202>
 8000694:	464c      	mov	r4, r9
 8000696:	4304      	orrs	r4, r0
 8000698:	0264      	lsls	r4, r4, #9
 800069a:	4647      	mov	r7, r8
 800069c:	20ff      	movs	r0, #255	; 0xff
 800069e:	0a64      	lsrs	r4, r4, #9
 80006a0:	e74a      	b.n	8000538 <__aeabi_fmul+0x98>
 80006a2:	2080      	movs	r0, #128	; 0x80
 80006a4:	03c0      	lsls	r0, r0, #15
 80006a6:	4304      	orrs	r4, r0
 80006a8:	0264      	lsls	r4, r4, #9
 80006aa:	0037      	movs	r7, r6
 80006ac:	20ff      	movs	r0, #255	; 0xff
 80006ae:	0a64      	lsrs	r4, r4, #9
 80006b0:	e742      	b.n	8000538 <__aeabi_fmul+0x98>
 80006b2:	0029      	movs	r1, r5
 80006b4:	e78e      	b.n	80005d4 <__aeabi_fmul+0x134>
 80006b6:	01a4      	lsls	r4, r4, #6
 80006b8:	2000      	movs	r0, #0
 80006ba:	0a64      	lsrs	r4, r4, #9
 80006bc:	e73c      	b.n	8000538 <__aeabi_fmul+0x98>
 80006be:	2080      	movs	r0, #128	; 0x80
 80006c0:	03c0      	lsls	r0, r0, #15
 80006c2:	4304      	orrs	r4, r0
 80006c4:	0264      	lsls	r4, r4, #9
 80006c6:	20ff      	movs	r0, #255	; 0xff
 80006c8:	0a64      	lsrs	r4, r4, #9
 80006ca:	e735      	b.n	8000538 <__aeabi_fmul+0x98>
 80006cc:	08004168 	.word	0x08004168
 80006d0:	f7ffffff 	.word	0xf7ffffff

080006d4 <__aeabi_fsub>:
 80006d4:	b5f0      	push	{r4, r5, r6, r7, lr}
 80006d6:	4646      	mov	r6, r8
 80006d8:	46d6      	mov	lr, sl
 80006da:	464f      	mov	r7, r9
 80006dc:	0243      	lsls	r3, r0, #9
 80006de:	0a5b      	lsrs	r3, r3, #9
 80006e0:	00da      	lsls	r2, r3, #3
 80006e2:	4694      	mov	ip, r2
 80006e4:	024a      	lsls	r2, r1, #9
 80006e6:	b5c0      	push	{r6, r7, lr}
 80006e8:	0044      	lsls	r4, r0, #1
 80006ea:	0a56      	lsrs	r6, r2, #9
 80006ec:	1c05      	adds	r5, r0, #0
 80006ee:	46b0      	mov	r8, r6
 80006f0:	0e24      	lsrs	r4, r4, #24
 80006f2:	004e      	lsls	r6, r1, #1
 80006f4:	0992      	lsrs	r2, r2, #6
 80006f6:	001f      	movs	r7, r3
 80006f8:	0020      	movs	r0, r4
 80006fa:	4692      	mov	sl, r2
 80006fc:	0fed      	lsrs	r5, r5, #31
 80006fe:	0e36      	lsrs	r6, r6, #24
 8000700:	0fc9      	lsrs	r1, r1, #31
 8000702:	2eff      	cmp	r6, #255	; 0xff
 8000704:	d100      	bne.n	8000708 <__aeabi_fsub+0x34>
 8000706:	e07f      	b.n	8000808 <__aeabi_fsub+0x134>
 8000708:	2201      	movs	r2, #1
 800070a:	4051      	eors	r1, r2
 800070c:	428d      	cmp	r5, r1
 800070e:	d051      	beq.n	80007b4 <__aeabi_fsub+0xe0>
 8000710:	1ba2      	subs	r2, r4, r6
 8000712:	4691      	mov	r9, r2
 8000714:	2a00      	cmp	r2, #0
 8000716:	dc00      	bgt.n	800071a <__aeabi_fsub+0x46>
 8000718:	e07e      	b.n	8000818 <__aeabi_fsub+0x144>
 800071a:	2e00      	cmp	r6, #0
 800071c:	d100      	bne.n	8000720 <__aeabi_fsub+0x4c>
 800071e:	e099      	b.n	8000854 <__aeabi_fsub+0x180>
 8000720:	2cff      	cmp	r4, #255	; 0xff
 8000722:	d100      	bne.n	8000726 <__aeabi_fsub+0x52>
 8000724:	e08c      	b.n	8000840 <__aeabi_fsub+0x16c>
 8000726:	2380      	movs	r3, #128	; 0x80
 8000728:	4652      	mov	r2, sl
 800072a:	04db      	lsls	r3, r3, #19
 800072c:	431a      	orrs	r2, r3
 800072e:	4692      	mov	sl, r2
 8000730:	464a      	mov	r2, r9
 8000732:	2301      	movs	r3, #1
 8000734:	2a1b      	cmp	r2, #27
 8000736:	dc08      	bgt.n	800074a <__aeabi_fsub+0x76>
 8000738:	4653      	mov	r3, sl
 800073a:	2120      	movs	r1, #32
 800073c:	40d3      	lsrs	r3, r2
 800073e:	1a89      	subs	r1, r1, r2
 8000740:	4652      	mov	r2, sl
 8000742:	408a      	lsls	r2, r1
 8000744:	1e51      	subs	r1, r2, #1
 8000746:	418a      	sbcs	r2, r1
 8000748:	4313      	orrs	r3, r2
 800074a:	4662      	mov	r2, ip
 800074c:	1ad3      	subs	r3, r2, r3
 800074e:	015a      	lsls	r2, r3, #5
 8000750:	d400      	bmi.n	8000754 <__aeabi_fsub+0x80>
 8000752:	e0f3      	b.n	800093c <__aeabi_fsub+0x268>
 8000754:	019b      	lsls	r3, r3, #6
 8000756:	099e      	lsrs	r6, r3, #6
 8000758:	0030      	movs	r0, r6
 800075a:	f000 fa5f 	bl	8000c1c <__clzsi2>
 800075e:	3805      	subs	r0, #5
 8000760:	4086      	lsls	r6, r0
 8000762:	4284      	cmp	r4, r0
 8000764:	dd00      	ble.n	8000768 <__aeabi_fsub+0x94>
 8000766:	e0f7      	b.n	8000958 <__aeabi_fsub+0x284>
 8000768:	0032      	movs	r2, r6
 800076a:	1b04      	subs	r4, r0, r4
 800076c:	2020      	movs	r0, #32
 800076e:	3401      	adds	r4, #1
 8000770:	40e2      	lsrs	r2, r4
 8000772:	1b04      	subs	r4, r0, r4
 8000774:	40a6      	lsls	r6, r4
 8000776:	0033      	movs	r3, r6
 8000778:	1e5e      	subs	r6, r3, #1
 800077a:	41b3      	sbcs	r3, r6
 800077c:	2400      	movs	r4, #0
 800077e:	4313      	orrs	r3, r2
 8000780:	075a      	lsls	r2, r3, #29
 8000782:	d004      	beq.n	800078e <__aeabi_fsub+0xba>
 8000784:	220f      	movs	r2, #15
 8000786:	401a      	ands	r2, r3
 8000788:	2a04      	cmp	r2, #4
 800078a:	d000      	beq.n	800078e <__aeabi_fsub+0xba>
 800078c:	3304      	adds	r3, #4
 800078e:	015a      	lsls	r2, r3, #5
 8000790:	d400      	bmi.n	8000794 <__aeabi_fsub+0xc0>
 8000792:	e0d6      	b.n	8000942 <__aeabi_fsub+0x26e>
 8000794:	1c62      	adds	r2, r4, #1
 8000796:	2cfe      	cmp	r4, #254	; 0xfe
 8000798:	d100      	bne.n	800079c <__aeabi_fsub+0xc8>
 800079a:	e0da      	b.n	8000952 <__aeabi_fsub+0x27e>
 800079c:	019b      	lsls	r3, r3, #6
 800079e:	0a5f      	lsrs	r7, r3, #9
 80007a0:	b2d0      	uxtb	r0, r2
 80007a2:	05c0      	lsls	r0, r0, #23
 80007a4:	4338      	orrs	r0, r7
 80007a6:	07ed      	lsls	r5, r5, #31
 80007a8:	4328      	orrs	r0, r5
 80007aa:	bce0      	pop	{r5, r6, r7}
 80007ac:	46ba      	mov	sl, r7
 80007ae:	46b1      	mov	r9, r6
 80007b0:	46a8      	mov	r8, r5
 80007b2:	bdf0      	pop	{r4, r5, r6, r7, pc}
 80007b4:	1ba2      	subs	r2, r4, r6
 80007b6:	4691      	mov	r9, r2
 80007b8:	2a00      	cmp	r2, #0
 80007ba:	dd63      	ble.n	8000884 <__aeabi_fsub+0x1b0>
 80007bc:	2e00      	cmp	r6, #0
 80007be:	d100      	bne.n	80007c2 <__aeabi_fsub+0xee>
 80007c0:	e099      	b.n	80008f6 <__aeabi_fsub+0x222>
 80007c2:	2cff      	cmp	r4, #255	; 0xff
 80007c4:	d03c      	beq.n	8000840 <__aeabi_fsub+0x16c>
 80007c6:	2380      	movs	r3, #128	; 0x80
 80007c8:	4652      	mov	r2, sl
 80007ca:	04db      	lsls	r3, r3, #19
 80007cc:	431a      	orrs	r2, r3
 80007ce:	4692      	mov	sl, r2
 80007d0:	464a      	mov	r2, r9
 80007d2:	2301      	movs	r3, #1
 80007d4:	2a1b      	cmp	r2, #27
 80007d6:	dc08      	bgt.n	80007ea <__aeabi_fsub+0x116>
 80007d8:	4653      	mov	r3, sl
 80007da:	2120      	movs	r1, #32
 80007dc:	40d3      	lsrs	r3, r2
 80007de:	1a89      	subs	r1, r1, r2
 80007e0:	4652      	mov	r2, sl
 80007e2:	408a      	lsls	r2, r1
 80007e4:	1e51      	subs	r1, r2, #1
 80007e6:	418a      	sbcs	r2, r1
 80007e8:	4313      	orrs	r3, r2
 80007ea:	4463      	add	r3, ip
 80007ec:	015a      	lsls	r2, r3, #5
 80007ee:	d400      	bmi.n	80007f2 <__aeabi_fsub+0x11e>
 80007f0:	e0a4      	b.n	800093c <__aeabi_fsub+0x268>
 80007f2:	3401      	adds	r4, #1
 80007f4:	2cff      	cmp	r4, #255	; 0xff
 80007f6:	d100      	bne.n	80007fa <__aeabi_fsub+0x126>
 80007f8:	e0ab      	b.n	8000952 <__aeabi_fsub+0x27e>
 80007fa:	2201      	movs	r2, #1
 80007fc:	4997      	ldr	r1, [pc, #604]	; (8000a5c <__aeabi_fsub+0x388>)
 80007fe:	401a      	ands	r2, r3
 8000800:	085b      	lsrs	r3, r3, #1
 8000802:	400b      	ands	r3, r1
 8000804:	4313      	orrs	r3, r2
 8000806:	e7bb      	b.n	8000780 <__aeabi_fsub+0xac>
 8000808:	2a00      	cmp	r2, #0
 800080a:	d032      	beq.n	8000872 <__aeabi_fsub+0x19e>
 800080c:	428d      	cmp	r5, r1
 800080e:	d035      	beq.n	800087c <__aeabi_fsub+0x1a8>
 8000810:	22ff      	movs	r2, #255	; 0xff
 8000812:	4252      	negs	r2, r2
 8000814:	4691      	mov	r9, r2
 8000816:	44a1      	add	r9, r4
 8000818:	464a      	mov	r2, r9
 800081a:	2a00      	cmp	r2, #0
 800081c:	d051      	beq.n	80008c2 <__aeabi_fsub+0x1ee>
 800081e:	1b30      	subs	r0, r6, r4
 8000820:	2c00      	cmp	r4, #0
 8000822:	d000      	beq.n	8000826 <__aeabi_fsub+0x152>
 8000824:	e09c      	b.n	8000960 <__aeabi_fsub+0x28c>
 8000826:	4663      	mov	r3, ip
 8000828:	2b00      	cmp	r3, #0
 800082a:	d100      	bne.n	800082e <__aeabi_fsub+0x15a>
 800082c:	e0df      	b.n	80009ee <__aeabi_fsub+0x31a>
 800082e:	3801      	subs	r0, #1
 8000830:	2800      	cmp	r0, #0
 8000832:	d100      	bne.n	8000836 <__aeabi_fsub+0x162>
 8000834:	e0f7      	b.n	8000a26 <__aeabi_fsub+0x352>
 8000836:	2eff      	cmp	r6, #255	; 0xff
 8000838:	d000      	beq.n	800083c <__aeabi_fsub+0x168>
 800083a:	e099      	b.n	8000970 <__aeabi_fsub+0x29c>
 800083c:	000d      	movs	r5, r1
 800083e:	4643      	mov	r3, r8
 8000840:	2b00      	cmp	r3, #0
 8000842:	d100      	bne.n	8000846 <__aeabi_fsub+0x172>
 8000844:	e085      	b.n	8000952 <__aeabi_fsub+0x27e>
 8000846:	2780      	movs	r7, #128	; 0x80
 8000848:	03ff      	lsls	r7, r7, #15
 800084a:	431f      	orrs	r7, r3
 800084c:	027f      	lsls	r7, r7, #9
 800084e:	20ff      	movs	r0, #255	; 0xff
 8000850:	0a7f      	lsrs	r7, r7, #9
 8000852:	e7a6      	b.n	80007a2 <__aeabi_fsub+0xce>
 8000854:	4652      	mov	r2, sl
 8000856:	2a00      	cmp	r2, #0
 8000858:	d074      	beq.n	8000944 <__aeabi_fsub+0x270>
 800085a:	2201      	movs	r2, #1
 800085c:	4252      	negs	r2, r2
 800085e:	4690      	mov	r8, r2
 8000860:	44c1      	add	r9, r8
 8000862:	464a      	mov	r2, r9
 8000864:	2a00      	cmp	r2, #0
 8000866:	d100      	bne.n	800086a <__aeabi_fsub+0x196>
 8000868:	e0c8      	b.n	80009fc <__aeabi_fsub+0x328>
 800086a:	2cff      	cmp	r4, #255	; 0xff
 800086c:	d000      	beq.n	8000870 <__aeabi_fsub+0x19c>
 800086e:	e75f      	b.n	8000730 <__aeabi_fsub+0x5c>
 8000870:	e7e6      	b.n	8000840 <__aeabi_fsub+0x16c>
 8000872:	2201      	movs	r2, #1
 8000874:	4051      	eors	r1, r2
 8000876:	42a9      	cmp	r1, r5
 8000878:	d000      	beq.n	800087c <__aeabi_fsub+0x1a8>
 800087a:	e749      	b.n	8000710 <__aeabi_fsub+0x3c>
 800087c:	22ff      	movs	r2, #255	; 0xff
 800087e:	4252      	negs	r2, r2
 8000880:	4691      	mov	r9, r2
 8000882:	44a1      	add	r9, r4
 8000884:	464a      	mov	r2, r9
 8000886:	2a00      	cmp	r2, #0
 8000888:	d043      	beq.n	8000912 <__aeabi_fsub+0x23e>
 800088a:	1b31      	subs	r1, r6, r4
 800088c:	2c00      	cmp	r4, #0
 800088e:	d100      	bne.n	8000892 <__aeabi_fsub+0x1be>
 8000890:	e08c      	b.n	80009ac <__aeabi_fsub+0x2d8>
 8000892:	2eff      	cmp	r6, #255	; 0xff
 8000894:	d100      	bne.n	8000898 <__aeabi_fsub+0x1c4>
 8000896:	e092      	b.n	80009be <__aeabi_fsub+0x2ea>
 8000898:	2380      	movs	r3, #128	; 0x80
 800089a:	4662      	mov	r2, ip
 800089c:	04db      	lsls	r3, r3, #19
 800089e:	431a      	orrs	r2, r3
 80008a0:	4694      	mov	ip, r2
 80008a2:	2301      	movs	r3, #1
 80008a4:	291b      	cmp	r1, #27
 80008a6:	dc09      	bgt.n	80008bc <__aeabi_fsub+0x1e8>
 80008a8:	2020      	movs	r0, #32
 80008aa:	4663      	mov	r3, ip
 80008ac:	4662      	mov	r2, ip
 80008ae:	40cb      	lsrs	r3, r1
 80008b0:	1a41      	subs	r1, r0, r1
 80008b2:	408a      	lsls	r2, r1
 80008b4:	0011      	movs	r1, r2
 80008b6:	1e48      	subs	r0, r1, #1
 80008b8:	4181      	sbcs	r1, r0
 80008ba:	430b      	orrs	r3, r1
 80008bc:	0034      	movs	r4, r6
 80008be:	4453      	add	r3, sl
 80008c0:	e794      	b.n	80007ec <__aeabi_fsub+0x118>
 80008c2:	22fe      	movs	r2, #254	; 0xfe
 80008c4:	1c66      	adds	r6, r4, #1
 80008c6:	4232      	tst	r2, r6
 80008c8:	d164      	bne.n	8000994 <__aeabi_fsub+0x2c0>
 80008ca:	2c00      	cmp	r4, #0
 80008cc:	d000      	beq.n	80008d0 <__aeabi_fsub+0x1fc>
 80008ce:	e082      	b.n	80009d6 <__aeabi_fsub+0x302>
 80008d0:	4663      	mov	r3, ip
 80008d2:	2b00      	cmp	r3, #0
 80008d4:	d100      	bne.n	80008d8 <__aeabi_fsub+0x204>
 80008d6:	e0ab      	b.n	8000a30 <__aeabi_fsub+0x35c>
 80008d8:	4653      	mov	r3, sl
 80008da:	2b00      	cmp	r3, #0
 80008dc:	d100      	bne.n	80008e0 <__aeabi_fsub+0x20c>
 80008de:	e760      	b.n	80007a2 <__aeabi_fsub+0xce>
 80008e0:	4663      	mov	r3, ip
 80008e2:	4652      	mov	r2, sl
 80008e4:	1a9b      	subs	r3, r3, r2
 80008e6:	015a      	lsls	r2, r3, #5
 80008e8:	d400      	bmi.n	80008ec <__aeabi_fsub+0x218>
 80008ea:	e0aa      	b.n	8000a42 <__aeabi_fsub+0x36e>
 80008ec:	4663      	mov	r3, ip
 80008ee:	4652      	mov	r2, sl
 80008f0:	000d      	movs	r5, r1
 80008f2:	1ad3      	subs	r3, r2, r3
 80008f4:	e744      	b.n	8000780 <__aeabi_fsub+0xac>
 80008f6:	4652      	mov	r2, sl
 80008f8:	2a00      	cmp	r2, #0
 80008fa:	d023      	beq.n	8000944 <__aeabi_fsub+0x270>
 80008fc:	2201      	movs	r2, #1
 80008fe:	4252      	negs	r2, r2
 8000900:	4690      	mov	r8, r2
 8000902:	44c1      	add	r9, r8
 8000904:	464a      	mov	r2, r9
 8000906:	2a00      	cmp	r2, #0
 8000908:	d075      	beq.n	80009f6 <__aeabi_fsub+0x322>
 800090a:	2cff      	cmp	r4, #255	; 0xff
 800090c:	d000      	beq.n	8000910 <__aeabi_fsub+0x23c>
 800090e:	e75f      	b.n	80007d0 <__aeabi_fsub+0xfc>
 8000910:	e796      	b.n	8000840 <__aeabi_fsub+0x16c>
 8000912:	26fe      	movs	r6, #254	; 0xfe
 8000914:	3401      	adds	r4, #1
 8000916:	4226      	tst	r6, r4
 8000918:	d153      	bne.n	80009c2 <__aeabi_fsub+0x2ee>
 800091a:	2800      	cmp	r0, #0
 800091c:	d172      	bne.n	8000a04 <__aeabi_fsub+0x330>
 800091e:	4663      	mov	r3, ip
 8000920:	2b00      	cmp	r3, #0
 8000922:	d100      	bne.n	8000926 <__aeabi_fsub+0x252>
 8000924:	e093      	b.n	8000a4e <__aeabi_fsub+0x37a>
 8000926:	4653      	mov	r3, sl
 8000928:	2b00      	cmp	r3, #0
 800092a:	d100      	bne.n	800092e <__aeabi_fsub+0x25a>
 800092c:	e739      	b.n	80007a2 <__aeabi_fsub+0xce>
 800092e:	4463      	add	r3, ip
 8000930:	2400      	movs	r4, #0
 8000932:	015a      	lsls	r2, r3, #5
 8000934:	d502      	bpl.n	800093c <__aeabi_fsub+0x268>
 8000936:	4a4a      	ldr	r2, [pc, #296]	; (8000a60 <__aeabi_fsub+0x38c>)
 8000938:	3401      	adds	r4, #1
 800093a:	4013      	ands	r3, r2
 800093c:	075a      	lsls	r2, r3, #29
 800093e:	d000      	beq.n	8000942 <__aeabi_fsub+0x26e>
 8000940:	e720      	b.n	8000784 <__aeabi_fsub+0xb0>
 8000942:	08db      	lsrs	r3, r3, #3
 8000944:	2cff      	cmp	r4, #255	; 0xff
 8000946:	d100      	bne.n	800094a <__aeabi_fsub+0x276>
 8000948:	e77a      	b.n	8000840 <__aeabi_fsub+0x16c>
 800094a:	025b      	lsls	r3, r3, #9
 800094c:	0a5f      	lsrs	r7, r3, #9
 800094e:	b2e0      	uxtb	r0, r4
 8000950:	e727      	b.n	80007a2 <__aeabi_fsub+0xce>
 8000952:	20ff      	movs	r0, #255	; 0xff
 8000954:	2700      	movs	r7, #0
 8000956:	e724      	b.n	80007a2 <__aeabi_fsub+0xce>
 8000958:	4b41      	ldr	r3, [pc, #260]	; (8000a60 <__aeabi_fsub+0x38c>)
 800095a:	1a24      	subs	r4, r4, r0
 800095c:	4033      	ands	r3, r6
 800095e:	e70f      	b.n	8000780 <__aeabi_fsub+0xac>
 8000960:	2eff      	cmp	r6, #255	; 0xff
 8000962:	d100      	bne.n	8000966 <__aeabi_fsub+0x292>
 8000964:	e76a      	b.n	800083c <__aeabi_fsub+0x168>
 8000966:	2380      	movs	r3, #128	; 0x80
 8000968:	4662      	mov	r2, ip
 800096a:	04db      	lsls	r3, r3, #19
 800096c:	431a      	orrs	r2, r3
 800096e:	4694      	mov	ip, r2
 8000970:	2301      	movs	r3, #1
 8000972:	281b      	cmp	r0, #27
 8000974:	dc09      	bgt.n	800098a <__aeabi_fsub+0x2b6>
 8000976:	2420      	movs	r4, #32
 8000978:	4663      	mov	r3, ip
 800097a:	4662      	mov	r2, ip
 800097c:	40c3      	lsrs	r3, r0
 800097e:	1a20      	subs	r0, r4, r0
 8000980:	4082      	lsls	r2, r0
 8000982:	0010      	movs	r0, r2
 8000984:	1e44      	subs	r4, r0, #1
 8000986:	41a0      	sbcs	r0, r4
 8000988:	4303      	orrs	r3, r0
 800098a:	4652      	mov	r2, sl
 800098c:	000d      	movs	r5, r1
 800098e:	0034      	movs	r4, r6
 8000990:	1ad3      	subs	r3, r2, r3
 8000992:	e6dc      	b.n	800074e <__aeabi_fsub+0x7a>
 8000994:	4663      	mov	r3, ip
 8000996:	4652      	mov	r2, sl
 8000998:	1a9e      	subs	r6, r3, r2
 800099a:	0173      	lsls	r3, r6, #5
 800099c:	d417      	bmi.n	80009ce <__aeabi_fsub+0x2fa>
 800099e:	2e00      	cmp	r6, #0
 80009a0:	d000      	beq.n	80009a4 <__aeabi_fsub+0x2d0>
 80009a2:	e6d9      	b.n	8000758 <__aeabi_fsub+0x84>
 80009a4:	2500      	movs	r5, #0
 80009a6:	2000      	movs	r0, #0
 80009a8:	2700      	movs	r7, #0
 80009aa:	e6fa      	b.n	80007a2 <__aeabi_fsub+0xce>
 80009ac:	4663      	mov	r3, ip
 80009ae:	2b00      	cmp	r3, #0
 80009b0:	d044      	beq.n	8000a3c <__aeabi_fsub+0x368>
 80009b2:	3901      	subs	r1, #1
 80009b4:	2900      	cmp	r1, #0
 80009b6:	d04c      	beq.n	8000a52 <__aeabi_fsub+0x37e>
 80009b8:	2eff      	cmp	r6, #255	; 0xff
 80009ba:	d000      	beq.n	80009be <__aeabi_fsub+0x2ea>
 80009bc:	e771      	b.n	80008a2 <__aeabi_fsub+0x1ce>
 80009be:	4643      	mov	r3, r8
 80009c0:	e73e      	b.n	8000840 <__aeabi_fsub+0x16c>
 80009c2:	2cff      	cmp	r4, #255	; 0xff
 80009c4:	d0c5      	beq.n	8000952 <__aeabi_fsub+0x27e>
 80009c6:	4652      	mov	r2, sl
 80009c8:	4462      	add	r2, ip
 80009ca:	0853      	lsrs	r3, r2, #1
 80009cc:	e7b6      	b.n	800093c <__aeabi_fsub+0x268>
 80009ce:	4663      	mov	r3, ip
 80009d0:	000d      	movs	r5, r1
 80009d2:	1ad6      	subs	r6, r2, r3
 80009d4:	e6c0      	b.n	8000758 <__aeabi_fsub+0x84>
 80009d6:	4662      	mov	r2, ip
 80009d8:	2a00      	cmp	r2, #0
 80009da:	d116      	bne.n	8000a0a <__aeabi_fsub+0x336>
 80009dc:	4653      	mov	r3, sl
 80009de:	2b00      	cmp	r3, #0
 80009e0:	d000      	beq.n	80009e4 <__aeabi_fsub+0x310>
 80009e2:	e72b      	b.n	800083c <__aeabi_fsub+0x168>
 80009e4:	2780      	movs	r7, #128	; 0x80
 80009e6:	2500      	movs	r5, #0
 80009e8:	20ff      	movs	r0, #255	; 0xff
 80009ea:	03ff      	lsls	r7, r7, #15
 80009ec:	e6d9      	b.n	80007a2 <__aeabi_fsub+0xce>
 80009ee:	000d      	movs	r5, r1
 80009f0:	4643      	mov	r3, r8
 80009f2:	0034      	movs	r4, r6
 80009f4:	e7a6      	b.n	8000944 <__aeabi_fsub+0x270>
 80009f6:	4653      	mov	r3, sl
 80009f8:	4463      	add	r3, ip
 80009fa:	e6f7      	b.n	80007ec <__aeabi_fsub+0x118>
 80009fc:	4663      	mov	r3, ip
 80009fe:	4652      	mov	r2, sl
 8000a00:	1a9b      	subs	r3, r3, r2
 8000a02:	e6a4      	b.n	800074e <__aeabi_fsub+0x7a>
 8000a04:	4662      	mov	r2, ip
 8000a06:	2a00      	cmp	r2, #0
 8000a08:	d0d9      	beq.n	80009be <__aeabi_fsub+0x2ea>
 8000a0a:	4652      	mov	r2, sl
 8000a0c:	2a00      	cmp	r2, #0
 8000a0e:	d100      	bne.n	8000a12 <__aeabi_fsub+0x33e>
 8000a10:	e716      	b.n	8000840 <__aeabi_fsub+0x16c>
 8000a12:	2280      	movs	r2, #128	; 0x80
 8000a14:	03d2      	lsls	r2, r2, #15
 8000a16:	4213      	tst	r3, r2
 8000a18:	d100      	bne.n	8000a1c <__aeabi_fsub+0x348>
 8000a1a:	e711      	b.n	8000840 <__aeabi_fsub+0x16c>
 8000a1c:	4640      	mov	r0, r8
 8000a1e:	4210      	tst	r0, r2
 8000a20:	d000      	beq.n	8000a24 <__aeabi_fsub+0x350>
 8000a22:	e70d      	b.n	8000840 <__aeabi_fsub+0x16c>
 8000a24:	e70a      	b.n	800083c <__aeabi_fsub+0x168>
 8000a26:	4652      	mov	r2, sl
 8000a28:	000d      	movs	r5, r1
 8000a2a:	0034      	movs	r4, r6
 8000a2c:	1ad3      	subs	r3, r2, r3
 8000a2e:	e68e      	b.n	800074e <__aeabi_fsub+0x7a>
 8000a30:	4653      	mov	r3, sl
 8000a32:	2b00      	cmp	r3, #0
 8000a34:	d008      	beq.n	8000a48 <__aeabi_fsub+0x374>
 8000a36:	000d      	movs	r5, r1
 8000a38:	4647      	mov	r7, r8
 8000a3a:	e6b2      	b.n	80007a2 <__aeabi_fsub+0xce>
 8000a3c:	4643      	mov	r3, r8
 8000a3e:	0034      	movs	r4, r6
 8000a40:	e780      	b.n	8000944 <__aeabi_fsub+0x270>
 8000a42:	2b00      	cmp	r3, #0
 8000a44:	d000      	beq.n	8000a48 <__aeabi_fsub+0x374>
 8000a46:	e779      	b.n	800093c <__aeabi_fsub+0x268>
 8000a48:	2500      	movs	r5, #0
 8000a4a:	2700      	movs	r7, #0
 8000a4c:	e6a9      	b.n	80007a2 <__aeabi_fsub+0xce>
 8000a4e:	4647      	mov	r7, r8
 8000a50:	e6a7      	b.n	80007a2 <__aeabi_fsub+0xce>
 8000a52:	4653      	mov	r3, sl
 8000a54:	0034      	movs	r4, r6
 8000a56:	4463      	add	r3, ip
 8000a58:	e6c8      	b.n	80007ec <__aeabi_fsub+0x118>
 8000a5a:	46c0      	nop			; (mov r8, r8)
 8000a5c:	7dffffff 	.word	0x7dffffff
 8000a60:	fbffffff 	.word	0xfbffffff

08000a64 <__aeabi_f2iz>:
 8000a64:	0241      	lsls	r1, r0, #9
 8000a66:	0042      	lsls	r2, r0, #1
 8000a68:	0fc3      	lsrs	r3, r0, #31
 8000a6a:	0a49      	lsrs	r1, r1, #9
 8000a6c:	2000      	movs	r0, #0
 8000a6e:	0e12      	lsrs	r2, r2, #24
 8000a70:	2a7e      	cmp	r2, #126	; 0x7e
 8000a72:	d903      	bls.n	8000a7c <__aeabi_f2iz+0x18>
 8000a74:	2a9d      	cmp	r2, #157	; 0x9d
 8000a76:	d902      	bls.n	8000a7e <__aeabi_f2iz+0x1a>
 8000a78:	4a09      	ldr	r2, [pc, #36]	; (8000aa0 <__aeabi_f2iz+0x3c>)
 8000a7a:	1898      	adds	r0, r3, r2
 8000a7c:	4770      	bx	lr
 8000a7e:	2080      	movs	r0, #128	; 0x80
 8000a80:	0400      	lsls	r0, r0, #16
 8000a82:	4301      	orrs	r1, r0
 8000a84:	2a95      	cmp	r2, #149	; 0x95
 8000a86:	dc07      	bgt.n	8000a98 <__aeabi_f2iz+0x34>
 8000a88:	2096      	movs	r0, #150	; 0x96
 8000a8a:	1a82      	subs	r2, r0, r2
 8000a8c:	40d1      	lsrs	r1, r2
 8000a8e:	4248      	negs	r0, r1
 8000a90:	2b00      	cmp	r3, #0
 8000a92:	d1f3      	bne.n	8000a7c <__aeabi_f2iz+0x18>
 8000a94:	0008      	movs	r0, r1
 8000a96:	e7f1      	b.n	8000a7c <__aeabi_f2iz+0x18>
 8000a98:	3a96      	subs	r2, #150	; 0x96
 8000a9a:	4091      	lsls	r1, r2
 8000a9c:	e7f7      	b.n	8000a8e <__aeabi_f2iz+0x2a>
 8000a9e:	46c0      	nop			; (mov r8, r8)
 8000aa0:	7fffffff 	.word	0x7fffffff

08000aa4 <__aeabi_i2f>:
 8000aa4:	b570      	push	{r4, r5, r6, lr}
 8000aa6:	2800      	cmp	r0, #0
 8000aa8:	d013      	beq.n	8000ad2 <__aeabi_i2f+0x2e>
 8000aaa:	17c3      	asrs	r3, r0, #31
 8000aac:	18c5      	adds	r5, r0, r3
 8000aae:	405d      	eors	r5, r3
 8000ab0:	0fc4      	lsrs	r4, r0, #31
 8000ab2:	0028      	movs	r0, r5
 8000ab4:	f000 f8b2 	bl	8000c1c <__clzsi2>
 8000ab8:	239e      	movs	r3, #158	; 0x9e
 8000aba:	0001      	movs	r1, r0
 8000abc:	1a1b      	subs	r3, r3, r0
 8000abe:	2b96      	cmp	r3, #150	; 0x96
 8000ac0:	dc0f      	bgt.n	8000ae2 <__aeabi_i2f+0x3e>
 8000ac2:	2808      	cmp	r0, #8
 8000ac4:	dd01      	ble.n	8000aca <__aeabi_i2f+0x26>
 8000ac6:	3908      	subs	r1, #8
 8000ac8:	408d      	lsls	r5, r1
 8000aca:	026d      	lsls	r5, r5, #9
 8000acc:	0a6d      	lsrs	r5, r5, #9
 8000ace:	b2d8      	uxtb	r0, r3
 8000ad0:	e002      	b.n	8000ad8 <__aeabi_i2f+0x34>
 8000ad2:	2400      	movs	r4, #0
 8000ad4:	2000      	movs	r0, #0
 8000ad6:	2500      	movs	r5, #0
 8000ad8:	05c0      	lsls	r0, r0, #23
 8000ada:	4328      	orrs	r0, r5
 8000adc:	07e4      	lsls	r4, r4, #31
 8000ade:	4320      	orrs	r0, r4
 8000ae0:	bd70      	pop	{r4, r5, r6, pc}
 8000ae2:	2b99      	cmp	r3, #153	; 0x99
 8000ae4:	dd0b      	ble.n	8000afe <__aeabi_i2f+0x5a>
 8000ae6:	2205      	movs	r2, #5
 8000ae8:	002e      	movs	r6, r5
 8000aea:	1a12      	subs	r2, r2, r0
 8000aec:	40d6      	lsrs	r6, r2
 8000aee:	0002      	movs	r2, r0
 8000af0:	321b      	adds	r2, #27
 8000af2:	4095      	lsls	r5, r2
 8000af4:	0028      	movs	r0, r5
 8000af6:	1e45      	subs	r5, r0, #1
 8000af8:	41a8      	sbcs	r0, r5
 8000afa:	0035      	movs	r5, r6
 8000afc:	4305      	orrs	r5, r0
 8000afe:	2905      	cmp	r1, #5
 8000b00:	dd01      	ble.n	8000b06 <__aeabi_i2f+0x62>
 8000b02:	1f4a      	subs	r2, r1, #5
 8000b04:	4095      	lsls	r5, r2
 8000b06:	002a      	movs	r2, r5
 8000b08:	4e08      	ldr	r6, [pc, #32]	; (8000b2c <__aeabi_i2f+0x88>)
 8000b0a:	4032      	ands	r2, r6
 8000b0c:	0768      	lsls	r0, r5, #29
 8000b0e:	d009      	beq.n	8000b24 <__aeabi_i2f+0x80>
 8000b10:	200f      	movs	r0, #15
 8000b12:	4028      	ands	r0, r5
 8000b14:	2804      	cmp	r0, #4
 8000b16:	d005      	beq.n	8000b24 <__aeabi_i2f+0x80>
 8000b18:	3204      	adds	r2, #4
 8000b1a:	0150      	lsls	r0, r2, #5
 8000b1c:	d502      	bpl.n	8000b24 <__aeabi_i2f+0x80>
 8000b1e:	239f      	movs	r3, #159	; 0x9f
 8000b20:	4032      	ands	r2, r6
 8000b22:	1a5b      	subs	r3, r3, r1
 8000b24:	0192      	lsls	r2, r2, #6
 8000b26:	0a55      	lsrs	r5, r2, #9
 8000b28:	b2d8      	uxtb	r0, r3
 8000b2a:	e7d5      	b.n	8000ad8 <__aeabi_i2f+0x34>
 8000b2c:	fbffffff 	.word	0xfbffffff

08000b30 <__aeabi_ui2f>:
 8000b30:	b570      	push	{r4, r5, r6, lr}
 8000b32:	1e05      	subs	r5, r0, #0
 8000b34:	d00e      	beq.n	8000b54 <__aeabi_ui2f+0x24>
 8000b36:	f000 f871 	bl	8000c1c <__clzsi2>
 8000b3a:	239e      	movs	r3, #158	; 0x9e
 8000b3c:	0004      	movs	r4, r0
 8000b3e:	1a1b      	subs	r3, r3, r0
 8000b40:	2b96      	cmp	r3, #150	; 0x96
 8000b42:	dc0c      	bgt.n	8000b5e <__aeabi_ui2f+0x2e>
 8000b44:	2808      	cmp	r0, #8
 8000b46:	dd01      	ble.n	8000b4c <__aeabi_ui2f+0x1c>
 8000b48:	3c08      	subs	r4, #8
 8000b4a:	40a5      	lsls	r5, r4
 8000b4c:	026d      	lsls	r5, r5, #9
 8000b4e:	0a6d      	lsrs	r5, r5, #9
 8000b50:	b2d8      	uxtb	r0, r3
 8000b52:	e001      	b.n	8000b58 <__aeabi_ui2f+0x28>
 8000b54:	2000      	movs	r0, #0
 8000b56:	2500      	movs	r5, #0
 8000b58:	05c0      	lsls	r0, r0, #23
 8000b5a:	4328      	orrs	r0, r5
 8000b5c:	bd70      	pop	{r4, r5, r6, pc}
 8000b5e:	2b99      	cmp	r3, #153	; 0x99
 8000b60:	dd09      	ble.n	8000b76 <__aeabi_ui2f+0x46>
 8000b62:	0002      	movs	r2, r0
 8000b64:	0029      	movs	r1, r5
 8000b66:	321b      	adds	r2, #27
 8000b68:	4091      	lsls	r1, r2
 8000b6a:	1e4a      	subs	r2, r1, #1
 8000b6c:	4191      	sbcs	r1, r2
 8000b6e:	2205      	movs	r2, #5
 8000b70:	1a12      	subs	r2, r2, r0
 8000b72:	40d5      	lsrs	r5, r2
 8000b74:	430d      	orrs	r5, r1
 8000b76:	2c05      	cmp	r4, #5
 8000b78:	dd01      	ble.n	8000b7e <__aeabi_ui2f+0x4e>
 8000b7a:	1f62      	subs	r2, r4, #5
 8000b7c:	4095      	lsls	r5, r2
 8000b7e:	0029      	movs	r1, r5
 8000b80:	4e08      	ldr	r6, [pc, #32]	; (8000ba4 <__aeabi_ui2f+0x74>)
 8000b82:	4031      	ands	r1, r6
 8000b84:	076a      	lsls	r2, r5, #29
 8000b86:	d009      	beq.n	8000b9c <__aeabi_ui2f+0x6c>
 8000b88:	200f      	movs	r0, #15
 8000b8a:	4028      	ands	r0, r5
 8000b8c:	2804      	cmp	r0, #4
 8000b8e:	d005      	beq.n	8000b9c <__aeabi_ui2f+0x6c>
 8000b90:	3104      	adds	r1, #4
 8000b92:	014a      	lsls	r2, r1, #5
 8000b94:	d502      	bpl.n	8000b9c <__aeabi_ui2f+0x6c>
 8000b96:	239f      	movs	r3, #159	; 0x9f
 8000b98:	4031      	ands	r1, r6
 8000b9a:	1b1b      	subs	r3, r3, r4
 8000b9c:	0189      	lsls	r1, r1, #6
 8000b9e:	0a4d      	lsrs	r5, r1, #9
 8000ba0:	b2d8      	uxtb	r0, r3
 8000ba2:	e7d9      	b.n	8000b58 <__aeabi_ui2f+0x28>
 8000ba4:	fbffffff 	.word	0xfbffffff

08000ba8 <__aeabi_cfrcmple>:
 8000ba8:	4684      	mov	ip, r0
 8000baa:	1c08      	adds	r0, r1, #0
 8000bac:	4661      	mov	r1, ip
 8000bae:	e7ff      	b.n	8000bb0 <__aeabi_cfcmpeq>

08000bb0 <__aeabi_cfcmpeq>:
 8000bb0:	b51f      	push	{r0, r1, r2, r3, r4, lr}
 8000bb2:	f000 f8c5 	bl	8000d40 <__lesf2>
 8000bb6:	2800      	cmp	r0, #0
 8000bb8:	d401      	bmi.n	8000bbe <__aeabi_cfcmpeq+0xe>
 8000bba:	2100      	movs	r1, #0
 8000bbc:	42c8      	cmn	r0, r1
 8000bbe:	bd1f      	pop	{r0, r1, r2, r3, r4, pc}

08000bc0 <__aeabi_fcmpeq>:
 8000bc0:	b510      	push	{r4, lr}
 8000bc2:	f000 f849 	bl	8000c58 <__eqsf2>
 8000bc6:	4240      	negs	r0, r0
 8000bc8:	3001      	adds	r0, #1
 8000bca:	bd10      	pop	{r4, pc}

08000bcc <__aeabi_fcmplt>:
 8000bcc:	b510      	push	{r4, lr}
 8000bce:	f000 f8b7 	bl	8000d40 <__lesf2>
 8000bd2:	2800      	cmp	r0, #0
 8000bd4:	db01      	blt.n	8000bda <__aeabi_fcmplt+0xe>
 8000bd6:	2000      	movs	r0, #0
 8000bd8:	bd10      	pop	{r4, pc}
 8000bda:	2001      	movs	r0, #1
 8000bdc:	bd10      	pop	{r4, pc}
 8000bde:	46c0      	nop			; (mov r8, r8)

08000be0 <__aeabi_fcmple>:
 8000be0:	b510      	push	{r4, lr}
 8000be2:	f000 f8ad 	bl	8000d40 <__lesf2>
 8000be6:	2800      	cmp	r0, #0
 8000be8:	dd01      	ble.n	8000bee <__aeabi_fcmple+0xe>
 8000bea:	2000      	movs	r0, #0
 8000bec:	bd10      	pop	{r4, pc}
 8000bee:	2001      	movs	r0, #1
 8000bf0:	bd10      	pop	{r4, pc}
 8000bf2:	46c0      	nop			; (mov r8, r8)

08000bf4 <__aeabi_fcmpgt>:
 8000bf4:	b510      	push	{r4, lr}
 8000bf6:	f000 f857 	bl	8000ca8 <__gesf2>
 8000bfa:	2800      	cmp	r0, #0
 8000bfc:	dc01      	bgt.n	8000c02 <__aeabi_fcmpgt+0xe>
 8000bfe:	2000      	movs	r0, #0
 8000c00:	bd10      	pop	{r4, pc}
 8000c02:	2001      	movs	r0, #1
 8000c04:	bd10      	pop	{r4, pc}
 8000c06:	46c0      	nop			; (mov r8, r8)

08000c08 <__aeabi_fcmpge>:
 8000c08:	b510      	push	{r4, lr}
 8000c0a:	f000 f84d 	bl	8000ca8 <__gesf2>
 8000c0e:	2800      	cmp	r0, #0
 8000c10:	da01      	bge.n	8000c16 <__aeabi_fcmpge+0xe>
 8000c12:	2000      	movs	r0, #0
 8000c14:	bd10      	pop	{r4, pc}
 8000c16:	2001      	movs	r0, #1
 8000c18:	bd10      	pop	{r4, pc}
 8000c1a:	46c0      	nop			; (mov r8, r8)

08000c1c <__clzsi2>:
 8000c1c:	211c      	movs	r1, #28
 8000c1e:	2301      	movs	r3, #1
 8000c20:	041b      	lsls	r3, r3, #16
 8000c22:	4298      	cmp	r0, r3
 8000c24:	d301      	bcc.n	8000c2a <__clzsi2+0xe>
 8000c26:	0c00      	lsrs	r0, r0, #16
 8000c28:	3910      	subs	r1, #16
 8000c2a:	0a1b      	lsrs	r3, r3, #8
 8000c2c:	4298      	cmp	r0, r3
 8000c2e:	d301      	bcc.n	8000c34 <__clzsi2+0x18>
 8000c30:	0a00      	lsrs	r0, r0, #8
 8000c32:	3908      	subs	r1, #8
 8000c34:	091b      	lsrs	r3, r3, #4
 8000c36:	4298      	cmp	r0, r3
 8000c38:	d301      	bcc.n	8000c3e <__clzsi2+0x22>
 8000c3a:	0900      	lsrs	r0, r0, #4
 8000c3c:	3904      	subs	r1, #4
 8000c3e:	a202      	add	r2, pc, #8	; (adr r2, 8000c48 <__clzsi2+0x2c>)
 8000c40:	5c10      	ldrb	r0, [r2, r0]
 8000c42:	1840      	adds	r0, r0, r1
 8000c44:	4770      	bx	lr
 8000c46:	46c0      	nop			; (mov r8, r8)
 8000c48:	02020304 	.word	0x02020304
 8000c4c:	01010101 	.word	0x01010101
	...

08000c58 <__eqsf2>:
 8000c58:	b570      	push	{r4, r5, r6, lr}
 8000c5a:	0042      	lsls	r2, r0, #1
 8000c5c:	024e      	lsls	r6, r1, #9
 8000c5e:	004c      	lsls	r4, r1, #1
 8000c60:	0245      	lsls	r5, r0, #9
 8000c62:	0a6d      	lsrs	r5, r5, #9
 8000c64:	0e12      	lsrs	r2, r2, #24
 8000c66:	0fc3      	lsrs	r3, r0, #31
 8000c68:	0a76      	lsrs	r6, r6, #9
 8000c6a:	0e24      	lsrs	r4, r4, #24
 8000c6c:	0fc9      	lsrs	r1, r1, #31
 8000c6e:	2aff      	cmp	r2, #255	; 0xff
 8000c70:	d00f      	beq.n	8000c92 <__eqsf2+0x3a>
 8000c72:	2cff      	cmp	r4, #255	; 0xff
 8000c74:	d011      	beq.n	8000c9a <__eqsf2+0x42>
 8000c76:	2001      	movs	r0, #1
 8000c78:	42a2      	cmp	r2, r4
 8000c7a:	d000      	beq.n	8000c7e <__eqsf2+0x26>
 8000c7c:	bd70      	pop	{r4, r5, r6, pc}
 8000c7e:	42b5      	cmp	r5, r6
 8000c80:	d1fc      	bne.n	8000c7c <__eqsf2+0x24>
 8000c82:	428b      	cmp	r3, r1
 8000c84:	d00d      	beq.n	8000ca2 <__eqsf2+0x4a>
 8000c86:	2a00      	cmp	r2, #0
 8000c88:	d1f8      	bne.n	8000c7c <__eqsf2+0x24>
 8000c8a:	0028      	movs	r0, r5
 8000c8c:	1e45      	subs	r5, r0, #1
 8000c8e:	41a8      	sbcs	r0, r5
 8000c90:	e7f4      	b.n	8000c7c <__eqsf2+0x24>
 8000c92:	2001      	movs	r0, #1
 8000c94:	2d00      	cmp	r5, #0
 8000c96:	d1f1      	bne.n	8000c7c <__eqsf2+0x24>
 8000c98:	e7eb      	b.n	8000c72 <__eqsf2+0x1a>
 8000c9a:	2001      	movs	r0, #1
 8000c9c:	2e00      	cmp	r6, #0
 8000c9e:	d1ed      	bne.n	8000c7c <__eqsf2+0x24>
 8000ca0:	e7e9      	b.n	8000c76 <__eqsf2+0x1e>
 8000ca2:	2000      	movs	r0, #0
 8000ca4:	e7ea      	b.n	8000c7c <__eqsf2+0x24>
 8000ca6:	46c0      	nop			; (mov r8, r8)

08000ca8 <__gesf2>:
 8000ca8:	b5f0      	push	{r4, r5, r6, r7, lr}
 8000caa:	0042      	lsls	r2, r0, #1
 8000cac:	0246      	lsls	r6, r0, #9
 8000cae:	024d      	lsls	r5, r1, #9
 8000cb0:	004c      	lsls	r4, r1, #1
 8000cb2:	0fc3      	lsrs	r3, r0, #31
 8000cb4:	0a76      	lsrs	r6, r6, #9
 8000cb6:	0e12      	lsrs	r2, r2, #24
 8000cb8:	0a6d      	lsrs	r5, r5, #9
 8000cba:	0e24      	lsrs	r4, r4, #24
 8000cbc:	0fc8      	lsrs	r0, r1, #31
 8000cbe:	2aff      	cmp	r2, #255	; 0xff
 8000cc0:	d01f      	beq.n	8000d02 <__gesf2+0x5a>
 8000cc2:	2cff      	cmp	r4, #255	; 0xff
 8000cc4:	d010      	beq.n	8000ce8 <__gesf2+0x40>
 8000cc6:	2a00      	cmp	r2, #0
 8000cc8:	d11f      	bne.n	8000d0a <__gesf2+0x62>
 8000cca:	4271      	negs	r1, r6
 8000ccc:	4171      	adcs	r1, r6
 8000cce:	2c00      	cmp	r4, #0
 8000cd0:	d101      	bne.n	8000cd6 <__gesf2+0x2e>
 8000cd2:	2d00      	cmp	r5, #0
 8000cd4:	d01e      	beq.n	8000d14 <__gesf2+0x6c>
 8000cd6:	2900      	cmp	r1, #0
 8000cd8:	d10e      	bne.n	8000cf8 <__gesf2+0x50>
 8000cda:	4283      	cmp	r3, r0
 8000cdc:	d01e      	beq.n	8000d1c <__gesf2+0x74>
 8000cde:	2102      	movs	r1, #2
 8000ce0:	1e58      	subs	r0, r3, #1
 8000ce2:	4008      	ands	r0, r1
 8000ce4:	3801      	subs	r0, #1
 8000ce6:	bdf0      	pop	{r4, r5, r6, r7, pc}
 8000ce8:	2d00      	cmp	r5, #0
 8000cea:	d126      	bne.n	8000d3a <__gesf2+0x92>
 8000cec:	2a00      	cmp	r2, #0
 8000cee:	d1f4      	bne.n	8000cda <__gesf2+0x32>
 8000cf0:	4271      	negs	r1, r6
 8000cf2:	4171      	adcs	r1, r6
 8000cf4:	2900      	cmp	r1, #0
 8000cf6:	d0f0      	beq.n	8000cda <__gesf2+0x32>
 8000cf8:	2800      	cmp	r0, #0
 8000cfa:	d1f4      	bne.n	8000ce6 <__gesf2+0x3e>
 8000cfc:	2001      	movs	r0, #1
 8000cfe:	4240      	negs	r0, r0
 8000d00:	e7f1      	b.n	8000ce6 <__gesf2+0x3e>
 8000d02:	2e00      	cmp	r6, #0
 8000d04:	d119      	bne.n	8000d3a <__gesf2+0x92>
 8000d06:	2cff      	cmp	r4, #255	; 0xff
 8000d08:	d0ee      	beq.n	8000ce8 <__gesf2+0x40>
 8000d0a:	2c00      	cmp	r4, #0
 8000d0c:	d1e5      	bne.n	8000cda <__gesf2+0x32>
 8000d0e:	2d00      	cmp	r5, #0
 8000d10:	d1e3      	bne.n	8000cda <__gesf2+0x32>
 8000d12:	e7e4      	b.n	8000cde <__gesf2+0x36>
 8000d14:	2000      	movs	r0, #0
 8000d16:	2e00      	cmp	r6, #0
 8000d18:	d0e5      	beq.n	8000ce6 <__gesf2+0x3e>
 8000d1a:	e7e0      	b.n	8000cde <__gesf2+0x36>
 8000d1c:	42a2      	cmp	r2, r4
 8000d1e:	dc05      	bgt.n	8000d2c <__gesf2+0x84>
 8000d20:	dbea      	blt.n	8000cf8 <__gesf2+0x50>
 8000d22:	42ae      	cmp	r6, r5
 8000d24:	d802      	bhi.n	8000d2c <__gesf2+0x84>
 8000d26:	d3e7      	bcc.n	8000cf8 <__gesf2+0x50>
 8000d28:	2000      	movs	r0, #0
 8000d2a:	e7dc      	b.n	8000ce6 <__gesf2+0x3e>
 8000d2c:	4241      	negs	r1, r0
 8000d2e:	4141      	adcs	r1, r0
 8000d30:	4248      	negs	r0, r1
 8000d32:	2102      	movs	r1, #2
 8000d34:	4008      	ands	r0, r1
 8000d36:	3801      	subs	r0, #1
 8000d38:	e7d5      	b.n	8000ce6 <__gesf2+0x3e>
 8000d3a:	2002      	movs	r0, #2
 8000d3c:	4240      	negs	r0, r0
 8000d3e:	e7d2      	b.n	8000ce6 <__gesf2+0x3e>

08000d40 <__lesf2>:
 8000d40:	b5f0      	push	{r4, r5, r6, r7, lr}
 8000d42:	0042      	lsls	r2, r0, #1
 8000d44:	0246      	lsls	r6, r0, #9
 8000d46:	024d      	lsls	r5, r1, #9
 8000d48:	004c      	lsls	r4, r1, #1
 8000d4a:	0fc3      	lsrs	r3, r0, #31
 8000d4c:	0a76      	lsrs	r6, r6, #9
 8000d4e:	0e12      	lsrs	r2, r2, #24
 8000d50:	0a6d      	lsrs	r5, r5, #9
 8000d52:	0e24      	lsrs	r4, r4, #24
 8000d54:	0fc8      	lsrs	r0, r1, #31
 8000d56:	2aff      	cmp	r2, #255	; 0xff
 8000d58:	d00d      	beq.n	8000d76 <__lesf2+0x36>
 8000d5a:	2cff      	cmp	r4, #255	; 0xff
 8000d5c:	d00f      	beq.n	8000d7e <__lesf2+0x3e>
 8000d5e:	2a00      	cmp	r2, #0
 8000d60:	d123      	bne.n	8000daa <__lesf2+0x6a>
 8000d62:	4271      	negs	r1, r6
 8000d64:	4171      	adcs	r1, r6
 8000d66:	2c00      	cmp	r4, #0
 8000d68:	d10f      	bne.n	8000d8a <__lesf2+0x4a>
 8000d6a:	2d00      	cmp	r5, #0
 8000d6c:	d10d      	bne.n	8000d8a <__lesf2+0x4a>
 8000d6e:	2000      	movs	r0, #0
 8000d70:	2e00      	cmp	r6, #0
 8000d72:	d014      	beq.n	8000d9e <__lesf2+0x5e>
 8000d74:	e00d      	b.n	8000d92 <__lesf2+0x52>
 8000d76:	2e00      	cmp	r6, #0
 8000d78:	d110      	bne.n	8000d9c <__lesf2+0x5c>
 8000d7a:	2cff      	cmp	r4, #255	; 0xff
 8000d7c:	d115      	bne.n	8000daa <__lesf2+0x6a>
 8000d7e:	2d00      	cmp	r5, #0
 8000d80:	d10c      	bne.n	8000d9c <__lesf2+0x5c>
 8000d82:	2a00      	cmp	r2, #0
 8000d84:	d103      	bne.n	8000d8e <__lesf2+0x4e>
 8000d86:	4271      	negs	r1, r6
 8000d88:	4171      	adcs	r1, r6
 8000d8a:	2900      	cmp	r1, #0
 8000d8c:	d108      	bne.n	8000da0 <__lesf2+0x60>
 8000d8e:	4283      	cmp	r3, r0
 8000d90:	d010      	beq.n	8000db4 <__lesf2+0x74>
 8000d92:	2102      	movs	r1, #2
 8000d94:	1e58      	subs	r0, r3, #1
 8000d96:	4008      	ands	r0, r1
 8000d98:	3801      	subs	r0, #1
 8000d9a:	e000      	b.n	8000d9e <__lesf2+0x5e>
 8000d9c:	2002      	movs	r0, #2
 8000d9e:	bdf0      	pop	{r4, r5, r6, r7, pc}
 8000da0:	2800      	cmp	r0, #0
 8000da2:	d1fc      	bne.n	8000d9e <__lesf2+0x5e>
 8000da4:	2001      	movs	r0, #1
 8000da6:	4240      	negs	r0, r0
 8000da8:	e7f9      	b.n	8000d9e <__lesf2+0x5e>
 8000daa:	2c00      	cmp	r4, #0
 8000dac:	d1ef      	bne.n	8000d8e <__lesf2+0x4e>
 8000dae:	2d00      	cmp	r5, #0
 8000db0:	d1ed      	bne.n	8000d8e <__lesf2+0x4e>
 8000db2:	e7ee      	b.n	8000d92 <__lesf2+0x52>
 8000db4:	42a2      	cmp	r2, r4
 8000db6:	dc05      	bgt.n	8000dc4 <__lesf2+0x84>
 8000db8:	dbf2      	blt.n	8000da0 <__lesf2+0x60>
 8000dba:	42ae      	cmp	r6, r5
 8000dbc:	d802      	bhi.n	8000dc4 <__lesf2+0x84>
 8000dbe:	d3ef      	bcc.n	8000da0 <__lesf2+0x60>
 8000dc0:	2000      	movs	r0, #0
 8000dc2:	e7ec      	b.n	8000d9e <__lesf2+0x5e>
 8000dc4:	4241      	negs	r1, r0
 8000dc6:	4141      	adcs	r1, r0
 8000dc8:	4248      	negs	r0, r1
 8000dca:	2102      	movs	r1, #2
 8000dcc:	4008      	ands	r0, r1
 8000dce:	3801      	subs	r0, #1
 8000dd0:	e7e5      	b.n	8000d9e <__lesf2+0x5e>
 8000dd2:	46c0      	nop			; (mov r8, r8)

08000dd4 <ReadWeigh>:
 8000dd4:	2090      	movs	r0, #144	; 0x90
 8000dd6:	b5f8      	push	{r3, r4, r5, r6, r7, lr}
 8000dd8:	2201      	movs	r2, #1
 8000dda:	2140      	movs	r1, #64	; 0x40
 8000ddc:	05c0      	lsls	r0, r0, #23
 8000dde:	f000 feb3 	bl	8001b48 <HAL_GPIO_WritePin>
 8000de2:	2001      	movs	r0, #1
 8000de4:	f000 fc72 	bl	80016cc <Delay_us>
 8000de8:	2090      	movs	r0, #144	; 0x90
 8000dea:	2200      	movs	r2, #0
 8000dec:	2180      	movs	r1, #128	; 0x80
 8000dee:	2590      	movs	r5, #144	; 0x90
 8000df0:	05c0      	lsls	r0, r0, #23
 8000df2:	f000 fea9 	bl	8001b48 <HAL_GPIO_WritePin>
 8000df6:	05ed      	lsls	r5, r5, #23
 8000df8:	2140      	movs	r1, #64	; 0x40
 8000dfa:	0028      	movs	r0, r5
 8000dfc:	f000 fe9e 	bl	8001b3c <HAL_GPIO_ReadPin>
 8000e00:	1e04      	subs	r4, r0, #0
 8000e02:	d1f9      	bne.n	8000df8 <ReadWeigh+0x24>
 8000e04:	2790      	movs	r7, #144	; 0x90
 8000e06:	2518      	movs	r5, #24
 8000e08:	2601      	movs	r6, #1
 8000e0a:	05ff      	lsls	r7, r7, #23
 8000e0c:	0032      	movs	r2, r6
 8000e0e:	2180      	movs	r1, #128	; 0x80
 8000e10:	0038      	movs	r0, r7
 8000e12:	f000 fe99 	bl	8001b48 <HAL_GPIO_WritePin>
 8000e16:	0030      	movs	r0, r6
 8000e18:	f000 fc58 	bl	80016cc <Delay_us>
 8000e1c:	2200      	movs	r2, #0
 8000e1e:	2180      	movs	r1, #128	; 0x80
 8000e20:	0038      	movs	r0, r7
 8000e22:	f000 fe91 	bl	8001b48 <HAL_GPIO_WritePin>
 8000e26:	2140      	movs	r1, #64	; 0x40
 8000e28:	0038      	movs	r0, r7
 8000e2a:	f000 fe87 	bl	8001b3c <HAL_GPIO_ReadPin>
 8000e2e:	3801      	subs	r0, #1
 8000e30:	4243      	negs	r3, r0
 8000e32:	4158      	adcs	r0, r3
 8000e34:	0064      	lsls	r4, r4, #1
 8000e36:	3d01      	subs	r5, #1
 8000e38:	1824      	adds	r4, r4, r0
 8000e3a:	b2ed      	uxtb	r5, r5
 8000e3c:	0030      	movs	r0, r6
 8000e3e:	f000 fc45 	bl	80016cc <Delay_us>
 8000e42:	2d00      	cmp	r5, #0
 8000e44:	d1e2      	bne.n	8000e0c <ReadWeigh+0x38>
 8000e46:	2090      	movs	r0, #144	; 0x90
 8000e48:	2201      	movs	r2, #1
 8000e4a:	2180      	movs	r1, #128	; 0x80
 8000e4c:	05c0      	lsls	r0, r0, #23
 8000e4e:	f000 fe7b 	bl	8001b48 <HAL_GPIO_WritePin>
 8000e52:	2001      	movs	r0, #1
 8000e54:	f000 fc3a 	bl	80016cc <Delay_us>
 8000e58:	2090      	movs	r0, #144	; 0x90
 8000e5a:	002a      	movs	r2, r5
 8000e5c:	2180      	movs	r1, #128	; 0x80
 8000e5e:	05c0      	lsls	r0, r0, #23
 8000e60:	f000 fe72 	bl	8001b48 <HAL_GPIO_WritePin>
 8000e64:	2080      	movs	r0, #128	; 0x80
 8000e66:	0400      	lsls	r0, r0, #16
 8000e68:	4060      	eors	r0, r4
 8000e6a:	bdf8      	pop	{r3, r4, r5, r6, r7, pc}

08000e6c <Get_Maopi>:
 8000e6c:	b510      	push	{r4, lr}
 8000e6e:	f7ff ffb1 	bl	8000dd4 <ReadWeigh>
 8000e72:	4b01      	ldr	r3, [pc, #4]	; (8000e78 <Get_Maopi+0xc>)
 8000e74:	6018      	str	r0, [r3, #0]
 8000e76:	bd10      	pop	{r4, pc}
 8000e78:	200000b4 	.word	0x200000b4

08000e7c <Get_Weight>:
 8000e7c:	b510      	push	{r4, lr}
 8000e7e:	f7ff ffa9 	bl	8000dd4 <ReadWeigh>
 8000e82:	4b08      	ldr	r3, [pc, #32]	; (8000ea4 <Get_Weight+0x28>)
 8000e84:	6018      	str	r0, [r3, #0]
 8000e86:	4b08      	ldr	r3, [pc, #32]	; (8000ea8 <Get_Weight+0x2c>)
 8000e88:	681b      	ldr	r3, [r3, #0]
 8000e8a:	4298      	cmp	r0, r3
 8000e8c:	d909      	bls.n	8000ea2 <Get_Weight+0x26>
 8000e8e:	1ac0      	subs	r0, r0, r3
 8000e90:	f7ff fe08 	bl	8000aa4 <__aeabi_i2f>
 8000e94:	4905      	ldr	r1, [pc, #20]	; (8000eac <Get_Weight+0x30>)
 8000e96:	f7ff f9f7 	bl	8000288 <__aeabi_fdiv>
 8000e9a:	f7ff fde3 	bl	8000a64 <__aeabi_f2iz>
 8000e9e:	4b04      	ldr	r3, [pc, #16]	; (8000eb0 <Get_Weight+0x34>)
 8000ea0:	6018      	str	r0, [r3, #0]
 8000ea2:	bd10      	pop	{r4, pc}
 8000ea4:	200000cc 	.word	0x200000cc
 8000ea8:	200000b4 	.word	0x200000b4
 8000eac:	43550000 	.word	0x43550000
 8000eb0:	200000b0 	.word	0x200000b0

08000eb4 <Weight_Init>:
 8000eb4:	b510      	push	{r4, lr}
 8000eb6:	f7ff ffd9 	bl	8000e6c <Get_Maopi>
 8000eba:	20fa      	movs	r0, #250	; 0xfa
 8000ebc:	0080      	lsls	r0, r0, #2
 8000ebe:	f000 fce7 	bl	8001890 <HAL_Delay>
 8000ec2:	f7ff ffd3 	bl	8000e6c <Get_Maopi>
 8000ec6:	bd10      	pop	{r4, pc}

08000ec8 <Weight_Update>:
 8000ec8:	b510      	push	{r4, lr}
 8000eca:	4b04      	ldr	r3, [pc, #16]	; (8000edc <Weight_Update+0x14>)
 8000ecc:	2011      	movs	r0, #17
 8000ece:	6819      	ldr	r1, [r3, #0]
 8000ed0:	4b03      	ldr	r3, [pc, #12]	; (8000ee0 <Weight_Update+0x18>)
 8000ed2:	6019      	str	r1, [r3, #0]
 8000ed4:	f002 f9c8 	bl	8003268 <mcu_dp_value_update>
 8000ed8:	bd10      	pop	{r4, pc}
 8000eda:	46c0      	nop			; (mov r8, r8)
 8000edc:	200000b0 	.word	0x200000b0
 8000ee0:	200000ac 	.word	0x200000ac

08000ee4 <Weight_Handle>:
 8000ee4:	4b0b      	ldr	r3, [pc, #44]	; (8000f14 <Weight_Handle+0x30>)
 8000ee6:	4a0c      	ldr	r2, [pc, #48]	; (8000f18 <Weight_Handle+0x34>)
 8000ee8:	681b      	ldr	r3, [r3, #0]
 8000eea:	6812      	ldr	r2, [r2, #0]
 8000eec:	b510      	push	{r4, lr}
 8000eee:	1a9b      	subs	r3, r3, r2
 8000ef0:	17da      	asrs	r2, r3, #31
 8000ef2:	189b      	adds	r3, r3, r2
 8000ef4:	4c09      	ldr	r4, [pc, #36]	; (8000f1c <Weight_Handle+0x38>)
 8000ef6:	4053      	eors	r3, r2
 8000ef8:	2b09      	cmp	r3, #9
 8000efa:	dd04      	ble.n	8000f06 <Weight_Handle+0x22>
 8000efc:	f7ff ffe4 	bl	8000ec8 <Weight_Update>
 8000f00:	2300      	movs	r3, #0
 8000f02:	6023      	str	r3, [r4, #0]
 8000f04:	bd10      	pop	{r4, pc}
 8000f06:	6823      	ldr	r3, [r4, #0]
 8000f08:	3301      	adds	r3, #1
 8000f0a:	6023      	str	r3, [r4, #0]
 8000f0c:	2bc7      	cmp	r3, #199	; 0xc7
 8000f0e:	ddf9      	ble.n	8000f04 <Weight_Handle+0x20>
 8000f10:	e7f4      	b.n	8000efc <Weight_Handle+0x18>
 8000f12:	46c0      	nop			; (mov r8, r8)
 8000f14:	200000b0 	.word	0x200000b0
 8000f18:	200000ac 	.word	0x200000ac
 8000f1c:	200000a8 	.word	0x200000a8

08000f20 <MX_GPIO_Init>:
 8000f20:	b5f0      	push	{r4, r5, r6, r7, lr}
 8000f22:	b08b      	sub	sp, #44	; 0x2c
 8000f24:	2214      	movs	r2, #20
 8000f26:	2100      	movs	r1, #0
 8000f28:	a805      	add	r0, sp, #20
 8000f2a:	f002 fc96 	bl	800385a <memset>
 8000f2e:	2080      	movs	r0, #128	; 0x80
 8000f30:	4b30      	ldr	r3, [pc, #192]	; (8000ff4 <MX_GPIO_Init+0xd4>)
 8000f32:	0300      	lsls	r0, r0, #12
 8000f34:	6959      	ldr	r1, [r3, #20]
 8000f36:	2790      	movs	r7, #144	; 0x90
 8000f38:	4301      	orrs	r1, r0
 8000f3a:	6159      	str	r1, [r3, #20]
 8000f3c:	695a      	ldr	r2, [r3, #20]
 8000f3e:	05ff      	lsls	r7, r7, #23
 8000f40:	4002      	ands	r2, r0
 8000f42:	2080      	movs	r0, #128	; 0x80
 8000f44:	9201      	str	r2, [sp, #4]
 8000f46:	9a01      	ldr	r2, [sp, #4]
 8000f48:	6959      	ldr	r1, [r3, #20]
 8000f4a:	03c0      	lsls	r0, r0, #15
 8000f4c:	4301      	orrs	r1, r0
 8000f4e:	6159      	str	r1, [r3, #20]
 8000f50:	695a      	ldr	r2, [r3, #20]
 8000f52:	4d29      	ldr	r5, [pc, #164]	; (8000ff8 <MX_GPIO_Init+0xd8>)
 8000f54:	4002      	ands	r2, r0
 8000f56:	2080      	movs	r0, #128	; 0x80
 8000f58:	9202      	str	r2, [sp, #8]
 8000f5a:	9a02      	ldr	r2, [sp, #8]
 8000f5c:	6959      	ldr	r1, [r3, #20]
 8000f5e:	0280      	lsls	r0, r0, #10
 8000f60:	4301      	orrs	r1, r0
 8000f62:	6159      	str	r1, [r3, #20]
 8000f64:	2180      	movs	r1, #128	; 0x80
 8000f66:	695a      	ldr	r2, [r3, #20]
 8000f68:	02c9      	lsls	r1, r1, #11
 8000f6a:	4002      	ands	r2, r0
 8000f6c:	9203      	str	r2, [sp, #12]
 8000f6e:	9a03      	ldr	r2, [sp, #12]
 8000f70:	695a      	ldr	r2, [r3, #20]
 8000f72:	0038      	movs	r0, r7
 8000f74:	430a      	orrs	r2, r1
 8000f76:	615a      	str	r2, [r3, #20]
 8000f78:	695b      	ldr	r3, [r3, #20]
 8000f7a:	2200      	movs	r2, #0
 8000f7c:	400b      	ands	r3, r1
 8000f7e:	9304      	str	r3, [sp, #16]
 8000f80:	2180      	movs	r1, #128	; 0x80
 8000f82:	9b04      	ldr	r3, [sp, #16]
 8000f84:	f000 fde0 	bl	8001b48 <HAL_GPIO_WritePin>
 8000f88:	21f0      	movs	r1, #240	; 0xf0
 8000f8a:	0028      	movs	r0, r5
 8000f8c:	2200      	movs	r2, #0
 8000f8e:	0189      	lsls	r1, r1, #6
 8000f90:	f000 fdda 	bl	8001b48 <HAL_GPIO_WritePin>
 8000f94:	2180      	movs	r1, #128	; 0x80
 8000f96:	2201      	movs	r2, #1
 8000f98:	0028      	movs	r0, r5
 8000f9a:	01c9      	lsls	r1, r1, #7
 8000f9c:	f000 fdd4 	bl	8001b48 <HAL_GPIO_WritePin>
 8000fa0:	2400      	movs	r4, #0
 8000fa2:	2340      	movs	r3, #64	; 0x40
 8000fa4:	0038      	movs	r0, r7
 8000fa6:	a905      	add	r1, sp, #20
 8000fa8:	2601      	movs	r6, #1
 8000faa:	9305      	str	r3, [sp, #20]
 8000fac:	9406      	str	r4, [sp, #24]
 8000fae:	9407      	str	r4, [sp, #28]
 8000fb0:	f000 fd12 	bl	80019d8 <HAL_GPIO_Init>
 8000fb4:	2380      	movs	r3, #128	; 0x80
 8000fb6:	0038      	movs	r0, r7
 8000fb8:	a905      	add	r1, sp, #20
 8000fba:	9305      	str	r3, [sp, #20]
 8000fbc:	9606      	str	r6, [sp, #24]
 8000fbe:	9407      	str	r4, [sp, #28]
 8000fc0:	9608      	str	r6, [sp, #32]
 8000fc2:	f000 fd09 	bl	80019d8 <HAL_GPIO_Init>
 8000fc6:	23f0      	movs	r3, #240	; 0xf0
 8000fc8:	019b      	lsls	r3, r3, #6
 8000fca:	9305      	str	r3, [sp, #20]
 8000fcc:	2303      	movs	r3, #3
 8000fce:	0028      	movs	r0, r5
 8000fd0:	a905      	add	r1, sp, #20
 8000fd2:	9308      	str	r3, [sp, #32]
 8000fd4:	9606      	str	r6, [sp, #24]
 8000fd6:	9407      	str	r4, [sp, #28]
 8000fd8:	f000 fcfe 	bl	80019d8 <HAL_GPIO_Init>
 8000fdc:	2380      	movs	r3, #128	; 0x80
 8000fde:	0028      	movs	r0, r5
 8000fe0:	01db      	lsls	r3, r3, #7
 8000fe2:	a905      	add	r1, sp, #20
 8000fe4:	9305      	str	r3, [sp, #20]
 8000fe6:	9606      	str	r6, [sp, #24]
 8000fe8:	9407      	str	r4, [sp, #28]
 8000fea:	9408      	str	r4, [sp, #32]
 8000fec:	f000 fcf4 	bl	80019d8 <HAL_GPIO_Init>
 8000ff0:	b00b      	add	sp, #44	; 0x2c
 8000ff2:	bdf0      	pop	{r4, r5, r6, r7, pc}
 8000ff4:	40021000 	.word	0x40021000
 8000ff8:	48000400 	.word	0x48000400

08000ffc <MX_I2C1_Init>:
 8000ffc:	b510      	push	{r4, lr}
 8000ffe:	4b15      	ldr	r3, [pc, #84]	; (8001054 <MX_I2C1_Init+0x58>)
 8001000:	4c15      	ldr	r4, [pc, #84]	; (8001058 <MX_I2C1_Init+0x5c>)
 8001002:	2201      	movs	r2, #1
 8001004:	6023      	str	r3, [r4, #0]
 8001006:	4b15      	ldr	r3, [pc, #84]	; (800105c <MX_I2C1_Init+0x60>)
 8001008:	0020      	movs	r0, r4
 800100a:	6063      	str	r3, [r4, #4]
 800100c:	2300      	movs	r3, #0
 800100e:	60e2      	str	r2, [r4, #12]
 8001010:	60a3      	str	r3, [r4, #8]
 8001012:	6123      	str	r3, [r4, #16]
 8001014:	6163      	str	r3, [r4, #20]
 8001016:	61a3      	str	r3, [r4, #24]
 8001018:	61e3      	str	r3, [r4, #28]
 800101a:	6223      	str	r3, [r4, #32]
 800101c:	f000 fee8 	bl	8001df0 <HAL_I2C_Init>
 8001020:	2800      	cmp	r0, #0
 8001022:	d001      	beq.n	8001028 <MX_I2C1_Init+0x2c>
 8001024:	f000 f946 	bl	80012b4 <Error_Handler>
 8001028:	2100      	movs	r1, #0
 800102a:	0020      	movs	r0, r4
 800102c:	f001 f914 	bl	8002258 <HAL_I2CEx_ConfigAnalogFilter>
 8001030:	2800      	cmp	r0, #0
 8001032:	d001      	beq.n	8001038 <MX_I2C1_Init+0x3c>
 8001034:	f000 f93e 	bl	80012b4 <Error_Handler>
 8001038:	2100      	movs	r1, #0
 800103a:	0020      	movs	r0, r4
 800103c:	f001 f932 	bl	80022a4 <HAL_I2CEx_ConfigDigitalFilter>
 8001040:	2800      	cmp	r0, #0
 8001042:	d001      	beq.n	8001048 <MX_I2C1_Init+0x4c>
 8001044:	f000 f936 	bl	80012b4 <Error_Handler>
 8001048:	4a05      	ldr	r2, [pc, #20]	; (8001060 <MX_I2C1_Init+0x64>)
 800104a:	4b06      	ldr	r3, [pc, #24]	; (8001064 <MX_I2C1_Init+0x68>)
 800104c:	6811      	ldr	r1, [r2, #0]
 800104e:	430b      	orrs	r3, r1
 8001050:	6013      	str	r3, [r2, #0]
 8001052:	bd10      	pop	{r4, pc}
 8001054:	40005400 	.word	0x40005400
 8001058:	200000d0 	.word	0x200000d0
 800105c:	20000209 	.word	0x20000209
 8001060:	40010000 	.word	0x40010000
 8001064:	aaaa0100 	.word	0xaaaa0100

08001068 <HAL_I2C_MspInit>:
 8001068:	b510      	push	{r4, lr}
 800106a:	0004      	movs	r4, r0
 800106c:	b088      	sub	sp, #32
 800106e:	2214      	movs	r2, #20
 8001070:	2100      	movs	r1, #0
 8001072:	a803      	add	r0, sp, #12
 8001074:	f002 fbf1 	bl	800385a <memset>
 8001078:	4b12      	ldr	r3, [pc, #72]	; (80010c4 <HAL_I2C_MspInit+0x5c>)
 800107a:	6822      	ldr	r2, [r4, #0]
 800107c:	429a      	cmp	r2, r3
 800107e:	d11f      	bne.n	80010c0 <HAL_I2C_MspInit+0x58>
 8001080:	2180      	movs	r1, #128	; 0x80
 8001082:	4c11      	ldr	r4, [pc, #68]	; (80010c8 <HAL_I2C_MspInit+0x60>)
 8001084:	02c9      	lsls	r1, r1, #11
 8001086:	6962      	ldr	r2, [r4, #20]
 8001088:	4810      	ldr	r0, [pc, #64]	; (80010cc <HAL_I2C_MspInit+0x64>)
 800108a:	430a      	orrs	r2, r1
 800108c:	6162      	str	r2, [r4, #20]
 800108e:	6963      	ldr	r3, [r4, #20]
 8001090:	2203      	movs	r2, #3
 8001092:	400b      	ands	r3, r1
 8001094:	9301      	str	r3, [sp, #4]
 8001096:	9b01      	ldr	r3, [sp, #4]
 8001098:	23c0      	movs	r3, #192	; 0xc0
 800109a:	9303      	str	r3, [sp, #12]
 800109c:	3bae      	subs	r3, #174	; 0xae
 800109e:	9304      	str	r3, [sp, #16]
 80010a0:	a903      	add	r1, sp, #12
 80010a2:	3b11      	subs	r3, #17
 80010a4:	9305      	str	r3, [sp, #20]
 80010a6:	9206      	str	r2, [sp, #24]
 80010a8:	9307      	str	r3, [sp, #28]
 80010aa:	f000 fc95 	bl	80019d8 <HAL_GPIO_Init>
 80010ae:	2180      	movs	r1, #128	; 0x80
 80010b0:	69e2      	ldr	r2, [r4, #28]
 80010b2:	0389      	lsls	r1, r1, #14
 80010b4:	430a      	orrs	r2, r1
 80010b6:	61e2      	str	r2, [r4, #28]
 80010b8:	69e3      	ldr	r3, [r4, #28]
 80010ba:	400b      	ands	r3, r1
 80010bc:	9302      	str	r3, [sp, #8]
 80010be:	9b02      	ldr	r3, [sp, #8]
 80010c0:	b008      	add	sp, #32
 80010c2:	bd10      	pop	{r4, pc}
 80010c4:	40005400 	.word	0x40005400
 80010c8:	40021000 	.word	0x40021000
 80010cc:	48000400 	.word	0x48000400

080010d0 <SystemClock_Config>:
 80010d0:	b570      	push	{r4, r5, r6, lr}
 80010d2:	2410      	movs	r4, #16
 80010d4:	b094      	sub	sp, #80	; 0x50
 80010d6:	221c      	movs	r2, #28
 80010d8:	2100      	movs	r1, #0
 80010da:	a809      	add	r0, sp, #36	; 0x24
 80010dc:	f002 fbbd 	bl	800385a <memset>
 80010e0:	0022      	movs	r2, r4
 80010e2:	2100      	movs	r1, #0
 80010e4:	4668      	mov	r0, sp
 80010e6:	f002 fbb8 	bl	800385a <memset>
 80010ea:	0022      	movs	r2, r4
 80010ec:	2100      	movs	r1, #0
 80010ee:	a804      	add	r0, sp, #16
 80010f0:	f002 fbb3 	bl	800385a <memset>
 80010f4:	22a0      	movs	r2, #160	; 0xa0
 80010f6:	2602      	movs	r6, #2
 80010f8:	2300      	movs	r3, #0
 80010fa:	2501      	movs	r5, #1
 80010fc:	0392      	lsls	r2, r2, #14
 80010fe:	a808      	add	r0, sp, #32
 8001100:	9608      	str	r6, [sp, #32]
 8001102:	950b      	str	r5, [sp, #44]	; 0x2c
 8001104:	940c      	str	r4, [sp, #48]	; 0x30
 8001106:	9610      	str	r6, [sp, #64]	; 0x40
 8001108:	9311      	str	r3, [sp, #68]	; 0x44
 800110a:	9212      	str	r2, [sp, #72]	; 0x48
 800110c:	9313      	str	r3, [sp, #76]	; 0x4c
 800110e:	f001 f8ed 	bl	80022ec <HAL_RCC_OscConfig>
 8001112:	2800      	cmp	r0, #0
 8001114:	d001      	beq.n	800111a <SystemClock_Config+0x4a>
 8001116:	b672      	cpsid	i
 8001118:	e7fe      	b.n	8001118 <SystemClock_Config+0x48>
 800111a:	2307      	movs	r3, #7
 800111c:	9002      	str	r0, [sp, #8]
 800111e:	9003      	str	r0, [sp, #12]
 8001120:	0029      	movs	r1, r5
 8001122:	4668      	mov	r0, sp
 8001124:	9300      	str	r3, [sp, #0]
 8001126:	9601      	str	r6, [sp, #4]
 8001128:	f001 fb12 	bl	8002750 <HAL_RCC_ClockConfig>
 800112c:	2800      	cmp	r0, #0
 800112e:	d001      	beq.n	8001134 <SystemClock_Config+0x64>
 8001130:	b672      	cpsid	i
 8001132:	e7fe      	b.n	8001132 <SystemClock_Config+0x62>
 8001134:	2321      	movs	r3, #33	; 0x21
 8001136:	a804      	add	r0, sp, #16
 8001138:	9304      	str	r3, [sp, #16]
 800113a:	9506      	str	r5, [sp, #24]
 800113c:	9407      	str	r4, [sp, #28]
 800113e:	f001 fb9b 	bl	8002878 <HAL_RCCEx_PeriphCLKConfig>
 8001142:	2800      	cmp	r0, #0
 8001144:	d001      	beq.n	800114a <SystemClock_Config+0x7a>
 8001146:	b672      	cpsid	i
 8001148:	e7fe      	b.n	8001148 <SystemClock_Config+0x78>
 800114a:	b014      	add	sp, #80	; 0x50
 800114c:	bd70      	pop	{r4, r5, r6, pc}
	...

08001150 <main>:
 8001150:	b570      	push	{r4, r5, r6, lr}
 8001152:	2400      	movs	r4, #0
 8001154:	2300      	movs	r3, #0
 8001156:	b09e      	sub	sp, #120	; 0x78
 8001158:	222e      	movs	r2, #46	; 0x2e
 800115a:	0021      	movs	r1, r4
 800115c:	ad02      	add	r5, sp, #8
 800115e:	a805      	add	r0, sp, #20
 8001160:	9300      	str	r3, [sp, #0]
 8001162:	9301      	str	r3, [sp, #4]
 8001164:	9402      	str	r4, [sp, #8]
 8001166:	80ac      	strh	r4, [r5, #4]
 8001168:	9404      	str	r4, [sp, #16]
 800116a:	f002 fb76 	bl	800385a <memset>
 800116e:	222e      	movs	r2, #46	; 0x2e
 8001170:	0021      	movs	r1, r4
 8001172:	a812      	add	r0, sp, #72	; 0x48
 8001174:	9411      	str	r4, [sp, #68]	; 0x44
 8001176:	f002 fb70 	bl	800385a <memset>
 800117a:	f000 fb67 	bl	800184c <HAL_Init>
 800117e:	f7ff ffa7 	bl	80010d0 <SystemClock_Config>
 8001182:	f7ff fecd 	bl	8000f20 <MX_GPIO_Init>
 8001186:	f7ff ff39 	bl	8000ffc <MX_I2C1_Init>
 800118a:	f000 fab7 	bl	80016fc <MX_USART1_UART_Init>
 800118e:	f000 fa71 	bl	8001674 <MX_TIM6_Init>
 8001192:	f002 f92d 	bl	80033f0 <wifi_protocol_init>
 8001196:	4b3d      	ldr	r3, [pc, #244]	; (800128c <main+0x13c>)
 8001198:	681a      	ldr	r2, [r3, #0]
 800119a:	2320      	movs	r3, #32
 800119c:	6811      	ldr	r1, [r2, #0]
 800119e:	430b      	orrs	r3, r1
 80011a0:	6013      	str	r3, [r2, #0]
 80011a2:	f000 f8c9 	bl	8001338 <OLED_Init>
 80011a6:	f000 f8e7 	bl	8001378 <OLED_Display_On>
 80011aa:	f000 f8cc 	bl	8001346 <OLED_Clear>
 80011ae:	f7ff fe81 	bl	8000eb4 <Weight_Init>
 80011b2:	f000 f967 	bl	8001484 <SHT30_Reset>
 80011b6:	f000 f96f 	bl	8001498 <SHT30_Init>
 80011ba:	42a0      	cmp	r0, r4
 80011bc:	d15a      	bne.n	8001274 <main+0x124>
 80011be:	230e      	movs	r3, #14
 80011c0:	0001      	movs	r1, r0
 80011c2:	4a33      	ldr	r2, [pc, #204]	; (8001290 <main+0x140>)
 80011c4:	f000 f930 	bl	8001428 <OLED_ShowString>
 80011c8:	f000 f8bd 	bl	8001346 <OLED_Clear>
 80011cc:	2101      	movs	r1, #1
 80011ce:	2013      	movs	r0, #19
 80011d0:	f002 f828 	bl	8003224 <mcu_dp_bool_update>
 80011d4:	2464      	movs	r4, #100	; 0x64
 80011d6:	f002 f8b9 	bl	800334c <wifi_uart_service>
 80011da:	0028      	movs	r0, r5
 80011dc:	f000 f964 	bl	80014a8 <SHT30_Read_Dat>
 80011e0:	2800      	cmp	r0, #0
 80011e2:	d151      	bne.n	8001288 <main+0x138>
 80011e4:	4669      	mov	r1, sp
 80011e6:	0028      	movs	r0, r5
 80011e8:	aa01      	add	r2, sp, #4
 80011ea:	f000 f997 	bl	800151c <SHT30_Dat_To_Float>
 80011ee:	2800      	cmp	r0, #0
 80011f0:	d145      	bne.n	800127e <main+0x12e>
 80011f2:	9801      	ldr	r0, [sp, #4]
 80011f4:	f7ff f830 	bl	8000258 <__aeabi_f2uiz>
 80011f8:	0006      	movs	r6, r0
 80011fa:	9800      	ldr	r0, [sp, #0]
 80011fc:	f7ff f82c 	bl	8000258 <__aeabi_f2uiz>
 8001200:	0033      	movs	r3, r6
 8001202:	0002      	movs	r2, r0
 8001204:	4923      	ldr	r1, [pc, #140]	; (8001294 <main+0x144>)
 8001206:	a804      	add	r0, sp, #16
 8001208:	f002 fb30 	bl	800386c <siprintf>
 800120c:	2014      	movs	r0, #20
 800120e:	f000 fb3f 	bl	8001890 <HAL_Delay>
 8001212:	9901      	ldr	r1, [sp, #4]
 8001214:	9800      	ldr	r0, [sp, #0]
 8001216:	f000 f9bb 	bl	8001590 <SHT30_Update>
 800121a:	0020      	movs	r0, r4
 800121c:	f000 fb38 	bl	8001890 <HAL_Delay>
 8001220:	f7ff fe2c 	bl	8000e7c <Get_Weight>
 8001224:	0020      	movs	r0, r4
 8001226:	f000 fb33 	bl	8001890 <HAL_Delay>
 800122a:	4b1b      	ldr	r3, [pc, #108]	; (8001298 <main+0x148>)
 800122c:	491b      	ldr	r1, [pc, #108]	; (800129c <main+0x14c>)
 800122e:	681a      	ldr	r2, [r3, #0]
 8001230:	a811      	add	r0, sp, #68	; 0x44
 8001232:	f002 fb1b 	bl	800386c <siprintf>
 8001236:	a911      	add	r1, sp, #68	; 0x44
 8001238:	a804      	add	r0, sp, #16
 800123a:	f002 fb37 	bl	80038ac <strcat>
 800123e:	a804      	add	r0, sp, #16
 8001240:	f7fe ff62 	bl	8000108 <strlen>
 8001244:	2100      	movs	r1, #0
 8001246:	b2c3      	uxtb	r3, r0
 8001248:	aa04      	add	r2, sp, #16
 800124a:	0008      	movs	r0, r1
 800124c:	f000 f8ec 	bl	8001428 <OLED_ShowString>
 8001250:	f7ff fe48 	bl	8000ee4 <Weight_Handle>
 8001254:	4b12      	ldr	r3, [pc, #72]	; (80012a0 <main+0x150>)
 8001256:	2200      	movs	r2, #0
 8001258:	781b      	ldrb	r3, [r3, #0]
 800125a:	2b00      	cmp	r3, #0
 800125c:	d100      	bne.n	8001260 <main+0x110>
 800125e:	2201      	movs	r2, #1
 8001260:	2180      	movs	r1, #128	; 0x80
 8001262:	4810      	ldr	r0, [pc, #64]	; (80012a4 <main+0x154>)
 8001264:	01c9      	lsls	r1, r1, #7
 8001266:	f000 fc6f 	bl	8001b48 <HAL_GPIO_WritePin>
 800126a:	20fa      	movs	r0, #250	; 0xfa
 800126c:	0040      	lsls	r0, r0, #1
 800126e:	f000 fb0f 	bl	8001890 <HAL_Delay>
 8001272:	e7b0      	b.n	80011d6 <main+0x86>
 8001274:	2310      	movs	r3, #16
 8001276:	0021      	movs	r1, r4
 8001278:	0020      	movs	r0, r4
 800127a:	4a0b      	ldr	r2, [pc, #44]	; (80012a8 <main+0x158>)
 800127c:	e7a2      	b.n	80011c4 <main+0x74>
 800127e:	490b      	ldr	r1, [pc, #44]	; (80012ac <main+0x15c>)
 8001280:	a804      	add	r0, sp, #16
 8001282:	f002 fb20 	bl	80038c6 <strcpy>
 8001286:	e7c1      	b.n	800120c <main+0xbc>
 8001288:	4909      	ldr	r1, [pc, #36]	; (80012b0 <main+0x160>)
 800128a:	e7f9      	b.n	8001280 <main+0x130>
 800128c:	20000164 	.word	0x20000164
 8001290:	080041a8 	.word	0x080041a8
 8001294:	080041c6 	.word	0x080041c6
 8001298:	200000b0 	.word	0x200000b0
 800129c:	08004212 	.word	0x08004212
 80012a0:	20000000 	.word	0x20000000
 80012a4:	48000400 	.word	0x48000400
 80012a8:	080041b6 	.word	0x080041b6
 80012ac:	080041e7 	.word	0x080041e7
 80012b0:	080041f7 	.word	0x080041f7

080012b4 <Error_Handler>:
 80012b4:	b672      	cpsid	i
 80012b6:	e7fe      	b.n	80012b6 <Error_Handler+0x2>

080012b8 <WriteCmd>:
 80012b8:	b57f      	push	{r0, r1, r2, r3, r4, r5, r6, lr}
 80012ba:	2680      	movs	r6, #128	; 0x80
 80012bc:	2400      	movs	r4, #0
 80012be:	2501      	movs	r5, #1
 80012c0:	0076      	lsls	r6, r6, #1
 80012c2:	4b07      	ldr	r3, [pc, #28]	; (80012e0 <WriteCmd+0x28>)
 80012c4:	2200      	movs	r2, #0
 80012c6:	191b      	adds	r3, r3, r4
 80012c8:	9300      	str	r3, [sp, #0]
 80012ca:	2178      	movs	r1, #120	; 0x78
 80012cc:	2301      	movs	r3, #1
 80012ce:	4805      	ldr	r0, [pc, #20]	; (80012e4 <WriteCmd+0x2c>)
 80012d0:	9602      	str	r6, [sp, #8]
 80012d2:	9501      	str	r5, [sp, #4]
 80012d4:	3401      	adds	r4, #1
 80012d6:	f000 ff05 	bl	80020e4 <HAL_I2C_Mem_Write>
 80012da:	2c1b      	cmp	r4, #27
 80012dc:	d1f1      	bne.n	80012c2 <WriteCmd+0xa>
 80012de:	bd7f      	pop	{r0, r1, r2, r3, r4, r5, r6, pc}
 80012e0:	20000001 	.word	0x20000001
 80012e4:	200000d0 	.word	0x200000d0

080012e8 <OLED_WR_CMD>:
 80012e8:	b57f      	push	{r0, r1, r2, r3, r4, r5, r6, lr}
 80012ea:	2217      	movs	r2, #23
 80012ec:	2380      	movs	r3, #128	; 0x80
 80012ee:	446a      	add	r2, sp
 80012f0:	005b      	lsls	r3, r3, #1
 80012f2:	7010      	strb	r0, [r2, #0]
 80012f4:	9302      	str	r3, [sp, #8]
 80012f6:	3bff      	subs	r3, #255	; 0xff
 80012f8:	9200      	str	r2, [sp, #0]
 80012fa:	2178      	movs	r1, #120	; 0x78
 80012fc:	2200      	movs	r2, #0
 80012fe:	9301      	str	r3, [sp, #4]
 8001300:	4802      	ldr	r0, [pc, #8]	; (800130c <OLED_WR_CMD+0x24>)
 8001302:	f000 feef 	bl	80020e4 <HAL_I2C_Mem_Write>
 8001306:	b007      	add	sp, #28
 8001308:	bd00      	pop	{pc}
 800130a:	46c0      	nop			; (mov r8, r8)
 800130c:	200000d0 	.word	0x200000d0

08001310 <OLED_WR_DATA>:
 8001310:	b57f      	push	{r0, r1, r2, r3, r4, r5, r6, lr}
 8001312:	2217      	movs	r2, #23
 8001314:	2380      	movs	r3, #128	; 0x80
 8001316:	446a      	add	r2, sp
 8001318:	005b      	lsls	r3, r3, #1
 800131a:	7010      	strb	r0, [r2, #0]
 800131c:	9302      	str	r3, [sp, #8]
 800131e:	3bff      	subs	r3, #255	; 0xff
 8001320:	9200      	str	r2, [sp, #0]
 8001322:	2178      	movs	r1, #120	; 0x78
 8001324:	2240      	movs	r2, #64	; 0x40
 8001326:	9301      	str	r3, [sp, #4]
 8001328:	4802      	ldr	r0, [pc, #8]	; (8001334 <OLED_WR_DATA+0x24>)
 800132a:	f000 fedb 	bl	80020e4 <HAL_I2C_Mem_Write>
 800132e:	b007      	add	sp, #28
 8001330:	bd00      	pop	{pc}
 8001332:	46c0      	nop			; (mov r8, r8)
 8001334:	200000d0 	.word	0x200000d0

08001338 <OLED_Init>:
 8001338:	b510      	push	{r4, lr}
 800133a:	20c8      	movs	r0, #200	; 0xc8
 800133c:	f000 faa8 	bl	8001890 <HAL_Delay>
 8001340:	f7ff ffba 	bl	80012b8 <WriteCmd>
 8001344:	bd10      	pop	{r4, pc}

08001346 <OLED_Clear>:
 8001346:	b570      	push	{r4, r5, r6, lr}
 8001348:	24b0      	movs	r4, #176	; 0xb0
 800134a:	2680      	movs	r6, #128	; 0x80
 800134c:	0020      	movs	r0, r4
 800134e:	f7ff ffcb 	bl	80012e8 <OLED_WR_CMD>
 8001352:	2000      	movs	r0, #0
 8001354:	f7ff ffc8 	bl	80012e8 <OLED_WR_CMD>
 8001358:	2010      	movs	r0, #16
 800135a:	f7ff ffc5 	bl	80012e8 <OLED_WR_CMD>
 800135e:	0035      	movs	r5, r6
 8001360:	3d01      	subs	r5, #1
 8001362:	2000      	movs	r0, #0
 8001364:	b2ed      	uxtb	r5, r5
 8001366:	f7ff ffd3 	bl	8001310 <OLED_WR_DATA>
 800136a:	2d00      	cmp	r5, #0
 800136c:	d1f8      	bne.n	8001360 <OLED_Clear+0x1a>
 800136e:	3401      	adds	r4, #1
 8001370:	b2e4      	uxtb	r4, r4
 8001372:	2cb8      	cmp	r4, #184	; 0xb8
 8001374:	d1ea      	bne.n	800134c <OLED_Clear+0x6>
 8001376:	bd70      	pop	{r4, r5, r6, pc}

08001378 <OLED_Display_On>:
 8001378:	b510      	push	{r4, lr}
 800137a:	208d      	movs	r0, #141	; 0x8d
 800137c:	f7ff ffb4 	bl	80012e8 <OLED_WR_CMD>
 8001380:	2014      	movs	r0, #20
 8001382:	f7ff ffb1 	bl	80012e8 <OLED_WR_CMD>
 8001386:	20af      	movs	r0, #175	; 0xaf
 8001388:	f7ff ffae 	bl	80012e8 <OLED_WR_CMD>
 800138c:	bd10      	pop	{r4, pc}

0800138e <OLED_Set_Pos>:
 800138e:	3950      	subs	r1, #80	; 0x50
 8001390:	b510      	push	{r4, lr}
 8001392:	0004      	movs	r4, r0
 8001394:	b2c8      	uxtb	r0, r1
 8001396:	f7ff ffa7 	bl	80012e8 <OLED_WR_CMD>
 800139a:	2010      	movs	r0, #16
 800139c:	0923      	lsrs	r3, r4, #4
 800139e:	4318      	orrs	r0, r3
 80013a0:	f7ff ffa2 	bl	80012e8 <OLED_WR_CMD>
 80013a4:	200f      	movs	r0, #15
 80013a6:	4020      	ands	r0, r4
 80013a8:	f7ff ff9e 	bl	80012e8 <OLED_WR_CMD>
 80013ac:	bd10      	pop	{r4, pc}
	...

080013b0 <OLED_ShowChar>:
 80013b0:	3a20      	subs	r2, #32
 80013b2:	b5f8      	push	{r3, r4, r5, r6, r7, lr}
 80013b4:	b2d5      	uxtb	r5, r2
 80013b6:	b242      	sxtb	r2, r0
 80013b8:	0006      	movs	r6, r0
 80013ba:	000c      	movs	r4, r1
 80013bc:	2a00      	cmp	r2, #0
 80013be:	da02      	bge.n	80013c6 <OLED_ShowChar+0x16>
 80013c0:	2600      	movs	r6, #0
 80013c2:	3402      	adds	r4, #2
 80013c4:	b2e4      	uxtb	r4, r4
 80013c6:	0021      	movs	r1, r4
 80013c8:	0030      	movs	r0, r6
 80013ca:	2b10      	cmp	r3, #16
 80013cc:	d11a      	bne.n	8001404 <OLED_ShowChar+0x54>
 80013ce:	2700      	movs	r7, #0
 80013d0:	f7ff ffdd 	bl	800138e <OLED_Set_Pos>
 80013d4:	4b12      	ldr	r3, [pc, #72]	; (8001420 <OLED_ShowChar+0x70>)
 80013d6:	012d      	lsls	r5, r5, #4
 80013d8:	18ed      	adds	r5, r5, r3
 80013da:	5de8      	ldrb	r0, [r5, r7]
 80013dc:	3701      	adds	r7, #1
 80013de:	f7ff ff97 	bl	8001310 <OLED_WR_DATA>
 80013e2:	2f08      	cmp	r7, #8
 80013e4:	d1f9      	bne.n	80013da <OLED_ShowChar+0x2a>
 80013e6:	3401      	adds	r4, #1
 80013e8:	b2e1      	uxtb	r1, r4
 80013ea:	0030      	movs	r0, r6
 80013ec:	f7ff ffcf 	bl	800138e <OLED_Set_Pos>
 80013f0:	2400      	movs	r4, #0
 80013f2:	002b      	movs	r3, r5
 80013f4:	3308      	adds	r3, #8
 80013f6:	5d18      	ldrb	r0, [r3, r4]
 80013f8:	3401      	adds	r4, #1
 80013fa:	f7ff ff89 	bl	8001310 <OLED_WR_DATA>
 80013fe:	2c08      	cmp	r4, #8
 8001400:	d1f7      	bne.n	80013f2 <OLED_ShowChar+0x42>
 8001402:	bdf8      	pop	{r3, r4, r5, r6, r7, pc}
 8001404:	f7ff ffc3 	bl	800138e <OLED_Set_Pos>
 8001408:	2206      	movs	r2, #6
 800140a:	2400      	movs	r4, #0
 800140c:	4355      	muls	r5, r2
 800140e:	4a05      	ldr	r2, [pc, #20]	; (8001424 <OLED_ShowChar+0x74>)
 8001410:	18ad      	adds	r5, r5, r2
 8001412:	5d28      	ldrb	r0, [r5, r4]
 8001414:	3401      	adds	r4, #1
 8001416:	f7ff ff7b 	bl	8001310 <OLED_WR_DATA>
 800141a:	2c06      	cmp	r4, #6
 800141c:	d1f9      	bne.n	8001412 <OLED_ShowChar+0x62>
 800141e:	e7f0      	b.n	8001402 <OLED_ShowChar+0x52>
 8001420:	0800444a 	.word	0x0800444a
 8001424:	08004222 	.word	0x08004222

08001428 <OLED_ShowString>:
 8001428:	b5f7      	push	{r0, r1, r2, r4, r5, r6, r7, lr}
 800142a:	0004      	movs	r4, r0
 800142c:	000d      	movs	r5, r1
 800142e:	001f      	movs	r7, r3
 8001430:	2600      	movs	r6, #0
 8001432:	9201      	str	r2, [sp, #4]
 8001434:	9b01      	ldr	r3, [sp, #4]
 8001436:	5d9a      	ldrb	r2, [r3, r6]
 8001438:	2a00      	cmp	r2, #0
 800143a:	d100      	bne.n	800143e <OLED_ShowString+0x16>
 800143c:	bdf7      	pop	{r0, r1, r2, r4, r5, r6, r7, pc}
 800143e:	0020      	movs	r0, r4
 8001440:	3408      	adds	r4, #8
 8001442:	003b      	movs	r3, r7
 8001444:	0029      	movs	r1, r5
 8001446:	b2e4      	uxtb	r4, r4
 8001448:	f7ff ffb2 	bl	80013b0 <OLED_ShowChar>
 800144c:	2c78      	cmp	r4, #120	; 0x78
 800144e:	d902      	bls.n	8001456 <OLED_ShowString+0x2e>
 8001450:	2400      	movs	r4, #0
 8001452:	3502      	adds	r5, #2
 8001454:	b2ed      	uxtb	r5, r5
 8001456:	3601      	adds	r6, #1
 8001458:	b2f6      	uxtb	r6, r6
 800145a:	e7eb      	b.n	8001434 <OLED_ShowString+0xc>

0800145c <SHT30_Send_Cmd>:
 800145c:	b51f      	push	{r0, r1, r2, r3, r4, lr}
 800145e:	466a      	mov	r2, sp
 8001460:	0a03      	lsrs	r3, r0, #8
 8001462:	7313      	strb	r3, [r2, #12]
 8001464:	4b05      	ldr	r3, [pc, #20]	; (800147c <SHT30_Send_Cmd+0x20>)
 8001466:	7350      	strb	r0, [r2, #13]
 8001468:	2188      	movs	r1, #136	; 0x88
 800146a:	9300      	str	r3, [sp, #0]
 800146c:	aa03      	add	r2, sp, #12
 800146e:	2302      	movs	r3, #2
 8001470:	4803      	ldr	r0, [pc, #12]	; (8001480 <SHT30_Send_Cmd+0x24>)
 8001472:	f000 fd13 	bl	8001e9c <HAL_I2C_Master_Transmit>
 8001476:	b005      	add	sp, #20
 8001478:	bd00      	pop	{pc}
 800147a:	46c0      	nop			; (mov r8, r8)
 800147c:	0000ffff 	.word	0x0000ffff
 8001480:	200000d0 	.word	0x200000d0

08001484 <SHT30_Reset>:
 8001484:	b510      	push	{r4, lr}
 8001486:	4803      	ldr	r0, [pc, #12]	; (8001494 <SHT30_Reset+0x10>)
 8001488:	f7ff ffe8 	bl	800145c <SHT30_Send_Cmd>
 800148c:	2014      	movs	r0, #20
 800148e:	f000 f9ff 	bl	8001890 <HAL_Delay>
 8001492:	bd10      	pop	{r4, pc}
 8001494:	000030a2 	.word	0x000030a2

08001498 <SHT30_Init>:
 8001498:	b510      	push	{r4, lr}
 800149a:	4802      	ldr	r0, [pc, #8]	; (80014a4 <SHT30_Init+0xc>)
 800149c:	f7ff ffde 	bl	800145c <SHT30_Send_Cmd>
 80014a0:	bd10      	pop	{r4, pc}
 80014a2:	46c0      	nop			; (mov r8, r8)
 80014a4:	00002220 	.word	0x00002220

080014a8 <SHT30_Read_Dat>:
 80014a8:	b513      	push	{r0, r1, r4, lr}
 80014aa:	0004      	movs	r4, r0
 80014ac:	20e0      	movs	r0, #224	; 0xe0
 80014ae:	0200      	lsls	r0, r0, #8
 80014b0:	f7ff ffd4 	bl	800145c <SHT30_Send_Cmd>
 80014b4:	4b04      	ldr	r3, [pc, #16]	; (80014c8 <SHT30_Read_Dat+0x20>)
 80014b6:	0022      	movs	r2, r4
 80014b8:	9300      	str	r3, [sp, #0]
 80014ba:	2189      	movs	r1, #137	; 0x89
 80014bc:	2306      	movs	r3, #6
 80014be:	4803      	ldr	r0, [pc, #12]	; (80014cc <SHT30_Read_Dat+0x24>)
 80014c0:	f000 fd7e 	bl	8001fc0 <HAL_I2C_Master_Receive>
 80014c4:	bd16      	pop	{r1, r2, r4, pc}
 80014c6:	46c0      	nop			; (mov r8, r8)
 80014c8:	0000ffff 	.word	0x0000ffff
 80014cc:	200000d0 	.word	0x200000d0

080014d0 <CheckCrc8>:
 80014d0:	b570      	push	{r4, r5, r6, lr}
 80014d2:	2308      	movs	r3, #8
 80014d4:	2531      	movs	r5, #49	; 0x31
 80014d6:	0002      	movs	r2, r0
 80014d8:	7800      	ldrb	r0, [r0, #0]
 80014da:	4048      	eors	r0, r1
 80014dc:	0044      	lsls	r4, r0, #1
 80014de:	b246      	sxtb	r6, r0
 80014e0:	0028      	movs	r0, r5
 80014e2:	4060      	eors	r0, r4
 80014e4:	b2c0      	uxtb	r0, r0
 80014e6:	2e00      	cmp	r6, #0
 80014e8:	da13      	bge.n	8001512 <CheckCrc8+0x42>
 80014ea:	3b01      	subs	r3, #1
 80014ec:	b2db      	uxtb	r3, r3
 80014ee:	2b00      	cmp	r3, #0
 80014f0:	d1f4      	bne.n	80014dc <CheckCrc8+0xc>
 80014f2:	7851      	ldrb	r1, [r2, #1]
 80014f4:	2308      	movs	r3, #8
 80014f6:	4048      	eors	r0, r1
 80014f8:	2131      	movs	r1, #49	; 0x31
 80014fa:	0042      	lsls	r2, r0, #1
 80014fc:	b244      	sxtb	r4, r0
 80014fe:	0008      	movs	r0, r1
 8001500:	4050      	eors	r0, r2
 8001502:	b2c0      	uxtb	r0, r0
 8001504:	2c00      	cmp	r4, #0
 8001506:	da06      	bge.n	8001516 <CheckCrc8+0x46>
 8001508:	3b01      	subs	r3, #1
 800150a:	b2db      	uxtb	r3, r3
 800150c:	2b00      	cmp	r3, #0
 800150e:	d1f4      	bne.n	80014fa <CheckCrc8+0x2a>
 8001510:	bd70      	pop	{r4, r5, r6, pc}
 8001512:	b2e0      	uxtb	r0, r4
 8001514:	e7e9      	b.n	80014ea <CheckCrc8+0x1a>
 8001516:	b2d0      	uxtb	r0, r2
 8001518:	e7f6      	b.n	8001508 <CheckCrc8+0x38>
	...

0800151c <SHT30_Dat_To_Float>:
 800151c:	b5f8      	push	{r3, r4, r5, r6, r7, lr}
 800151e:	0004      	movs	r4, r0
 8001520:	000e      	movs	r6, r1
 8001522:	21ff      	movs	r1, #255	; 0xff
 8001524:	0015      	movs	r5, r2
 8001526:	f7ff ffd3 	bl	80014d0 <CheckCrc8>
 800152a:	78a3      	ldrb	r3, [r4, #2]
 800152c:	2701      	movs	r7, #1
 800152e:	4283      	cmp	r3, r0
 8001530:	d124      	bne.n	800157c <SHT30_Dat_To_Float+0x60>
 8001532:	21ff      	movs	r1, #255	; 0xff
 8001534:	1ce0      	adds	r0, r4, #3
 8001536:	f7ff ffcb 	bl	80014d0 <CheckCrc8>
 800153a:	7963      	ldrb	r3, [r4, #5]
 800153c:	4283      	cmp	r3, r0
 800153e:	d11d      	bne.n	800157c <SHT30_Dat_To_Float+0x60>
 8001540:	7823      	ldrb	r3, [r4, #0]
 8001542:	7860      	ldrb	r0, [r4, #1]
 8001544:	021b      	lsls	r3, r3, #8
 8001546:	4318      	orrs	r0, r3
 8001548:	f7ff faf2 	bl	8000b30 <__aeabi_ui2f>
 800154c:	490c      	ldr	r1, [pc, #48]	; (8001580 <SHT30_Dat_To_Float+0x64>)
 800154e:	f7fe fe9b 	bl	8000288 <__aeabi_fdiv>
 8001552:	490c      	ldr	r1, [pc, #48]	; (8001584 <SHT30_Dat_To_Float+0x68>)
 8001554:	f7fe ffa4 	bl	80004a0 <__aeabi_fmul>
 8001558:	490b      	ldr	r1, [pc, #44]	; (8001588 <SHT30_Dat_To_Float+0x6c>)
 800155a:	f7ff f8bb 	bl	80006d4 <__aeabi_fsub>
 800155e:	6030      	str	r0, [r6, #0]
 8001560:	78e3      	ldrb	r3, [r4, #3]
 8001562:	7920      	ldrb	r0, [r4, #4]
 8001564:	021b      	lsls	r3, r3, #8
 8001566:	4318      	orrs	r0, r3
 8001568:	f7ff fae2 	bl	8000b30 <__aeabi_ui2f>
 800156c:	4904      	ldr	r1, [pc, #16]	; (8001580 <SHT30_Dat_To_Float+0x64>)
 800156e:	f7fe fe8b 	bl	8000288 <__aeabi_fdiv>
 8001572:	4906      	ldr	r1, [pc, #24]	; (800158c <SHT30_Dat_To_Float+0x70>)
 8001574:	f7fe ff94 	bl	80004a0 <__aeabi_fmul>
 8001578:	2700      	movs	r7, #0
 800157a:	6028      	str	r0, [r5, #0]
 800157c:	0038      	movs	r0, r7
 800157e:	bdf8      	pop	{r3, r4, r5, r6, r7, pc}
 8001580:	477fff00 	.word	0x477fff00
 8001584:	432f0000 	.word	0x432f0000
 8001588:	42340000 	.word	0x42340000
 800158c:	42c80000 	.word	0x42c80000

08001590 <SHT30_Update>:
 8001590:	b570      	push	{r4, r5, r6, lr}
 8001592:	4c0d      	ldr	r4, [pc, #52]	; (80015c8 <SHT30_Update+0x38>)
 8001594:	1c0d      	adds	r5, r1, #0
 8001596:	7823      	ldrb	r3, [r4, #0]
 8001598:	2b00      	cmp	r3, #0
 800159a:	d10c      	bne.n	80015b6 <SHT30_Update+0x26>
 800159c:	f7fe fe5c 	bl	8000258 <__aeabi_f2uiz>
 80015a0:	0001      	movs	r1, r0
 80015a2:	2065      	movs	r0, #101	; 0x65
 80015a4:	f001 fe60 	bl	8003268 <mcu_dp_value_update>
 80015a8:	1c28      	adds	r0, r5, #0
 80015aa:	f7fe fe55 	bl	8000258 <__aeabi_f2uiz>
 80015ae:	0001      	movs	r1, r0
 80015b0:	2066      	movs	r0, #102	; 0x66
 80015b2:	f001 fe59 	bl	8003268 <mcu_dp_value_update>
 80015b6:	7820      	ldrb	r0, [r4, #0]
 80015b8:	2114      	movs	r1, #20
 80015ba:	3001      	adds	r0, #1
 80015bc:	b2c0      	uxtb	r0, r0
 80015be:	f7fe fe45 	bl	800024c <__aeabi_uidivmod>
 80015c2:	7021      	strb	r1, [r4, #0]
 80015c4:	bd70      	pop	{r4, r5, r6, pc}
 80015c6:	46c0      	nop			; (mov r8, r8)
 80015c8:	200000b8 	.word	0x200000b8

080015cc <HAL_MspInit>:
 80015cc:	2001      	movs	r0, #1
 80015ce:	4b0a      	ldr	r3, [pc, #40]	; (80015f8 <HAL_MspInit+0x2c>)
 80015d0:	b082      	sub	sp, #8
 80015d2:	6999      	ldr	r1, [r3, #24]
 80015d4:	4301      	orrs	r1, r0
 80015d6:	6199      	str	r1, [r3, #24]
 80015d8:	2180      	movs	r1, #128	; 0x80
 80015da:	699a      	ldr	r2, [r3, #24]
 80015dc:	0549      	lsls	r1, r1, #21
 80015de:	4002      	ands	r2, r0
 80015e0:	9200      	str	r2, [sp, #0]
 80015e2:	9a00      	ldr	r2, [sp, #0]
 80015e4:	69da      	ldr	r2, [r3, #28]
 80015e6:	430a      	orrs	r2, r1
 80015e8:	61da      	str	r2, [r3, #28]
 80015ea:	69db      	ldr	r3, [r3, #28]
 80015ec:	400b      	ands	r3, r1
 80015ee:	9301      	str	r3, [sp, #4]
 80015f0:	9b01      	ldr	r3, [sp, #4]
 80015f2:	b002      	add	sp, #8
 80015f4:	4770      	bx	lr
 80015f6:	46c0      	nop			; (mov r8, r8)
 80015f8:	40021000 	.word	0x40021000

080015fc <NMI_Handler>:
 80015fc:	e7fe      	b.n	80015fc <NMI_Handler>

080015fe <HardFault_Handler>:
 80015fe:	e7fe      	b.n	80015fe <HardFault_Handler>

08001600 <SVC_Handler>:
 8001600:	4770      	bx	lr

08001602 <PendSV_Handler>:
 8001602:	4770      	bx	lr

08001604 <SysTick_Handler>:
 8001604:	b510      	push	{r4, lr}
 8001606:	f000 f931 	bl	800186c <HAL_IncTick>
 800160a:	bd10      	pop	{r4, pc}

0800160c <USART1_IRQHandler>:
 800160c:	b510      	push	{r4, lr}
 800160e:	4806      	ldr	r0, [pc, #24]	; (8001628 <USART1_IRQHandler+0x1c>)
 8001610:	f001 fa90 	bl	8002b34 <HAL_UART_IRQHandler>
 8001614:	4b05      	ldr	r3, [pc, #20]	; (800162c <USART1_IRQHandler+0x20>)
 8001616:	69da      	ldr	r2, [r3, #28]
 8001618:	0692      	lsls	r2, r2, #26
 800161a:	d503      	bpl.n	8001624 <USART1_IRQHandler+0x18>
 800161c:	8c98      	ldrh	r0, [r3, #36]	; 0x24
 800161e:	b2c0      	uxtb	r0, r0
 8001620:	f001 fe74 	bl	800330c <uart_receive_input>
 8001624:	bd10      	pop	{r4, pc}
 8001626:	46c0      	nop			; (mov r8, r8)
 8001628:	20000164 	.word	0x20000164
 800162c:	40013800 	.word	0x40013800

08001630 <_sbrk>:
 8001630:	4a0b      	ldr	r2, [pc, #44]	; (8001660 <_sbrk+0x30>)
 8001632:	490c      	ldr	r1, [pc, #48]	; (8001664 <_sbrk+0x34>)
 8001634:	0003      	movs	r3, r0
 8001636:	1a89      	subs	r1, r1, r2
 8001638:	4a0b      	ldr	r2, [pc, #44]	; (8001668 <_sbrk+0x38>)
 800163a:	b510      	push	{r4, lr}
 800163c:	6810      	ldr	r0, [r2, #0]
 800163e:	2800      	cmp	r0, #0
 8001640:	d101      	bne.n	8001646 <_sbrk+0x16>
 8001642:	480a      	ldr	r0, [pc, #40]	; (800166c <_sbrk+0x3c>)
 8001644:	6010      	str	r0, [r2, #0]
 8001646:	6810      	ldr	r0, [r2, #0]
 8001648:	18c3      	adds	r3, r0, r3
 800164a:	428b      	cmp	r3, r1
 800164c:	d906      	bls.n	800165c <_sbrk+0x2c>
 800164e:	f002 f8d1 	bl	80037f4 <__errno>
 8001652:	230c      	movs	r3, #12
 8001654:	6003      	str	r3, [r0, #0]
 8001656:	2001      	movs	r0, #1
 8001658:	4240      	negs	r0, r0
 800165a:	bd10      	pop	{r4, pc}
 800165c:	6013      	str	r3, [r2, #0]
 800165e:	e7fc      	b.n	800165a <_sbrk+0x2a>
 8001660:	00000400 	.word	0x00000400
 8001664:	20002000 	.word	0x20002000
 8001668:	200000bc 	.word	0x200000bc
 800166c:	20000278 	.word	0x20000278

08001670 <SystemInit>:
 8001670:	4770      	bx	lr
	...

08001674 <MX_TIM6_Init>:
 8001674:	4808      	ldr	r0, [pc, #32]	; (8001698 <MX_TIM6_Init+0x24>)
 8001676:	4b09      	ldr	r3, [pc, #36]	; (800169c <MX_TIM6_Init+0x28>)
 8001678:	b510      	push	{r4, lr}
 800167a:	6003      	str	r3, [r0, #0]
 800167c:	232f      	movs	r3, #47	; 0x2f
 800167e:	6043      	str	r3, [r0, #4]
 8001680:	2300      	movs	r3, #0
 8001682:	4a07      	ldr	r2, [pc, #28]	; (80016a0 <MX_TIM6_Init+0x2c>)
 8001684:	6083      	str	r3, [r0, #8]
 8001686:	60c2      	str	r2, [r0, #12]
 8001688:	6183      	str	r3, [r0, #24]
 800168a:	f001 fa03 	bl	8002a94 <HAL_TIM_Base_Init>
 800168e:	2800      	cmp	r0, #0
 8001690:	d001      	beq.n	8001696 <MX_TIM6_Init+0x22>
 8001692:	f7ff fe0f 	bl	80012b4 <Error_Handler>
 8001696:	bd10      	pop	{r4, pc}
 8001698:	2000011c 	.word	0x2000011c
 800169c:	40001000 	.word	0x40001000
 80016a0:	0000ffff 	.word	0x0000ffff

080016a4 <HAL_TIM_Base_MspInit>:
 80016a4:	4b07      	ldr	r3, [pc, #28]	; (80016c4 <HAL_TIM_Base_MspInit+0x20>)
 80016a6:	6802      	ldr	r2, [r0, #0]
 80016a8:	b082      	sub	sp, #8
 80016aa:	429a      	cmp	r2, r3
 80016ac:	d108      	bne.n	80016c0 <HAL_TIM_Base_MspInit+0x1c>
 80016ae:	2010      	movs	r0, #16
 80016b0:	4a05      	ldr	r2, [pc, #20]	; (80016c8 <HAL_TIM_Base_MspInit+0x24>)
 80016b2:	69d1      	ldr	r1, [r2, #28]
 80016b4:	4301      	orrs	r1, r0
 80016b6:	61d1      	str	r1, [r2, #28]
 80016b8:	69d3      	ldr	r3, [r2, #28]
 80016ba:	4003      	ands	r3, r0
 80016bc:	9301      	str	r3, [sp, #4]
 80016be:	9b01      	ldr	r3, [sp, #4]
 80016c0:	b002      	add	sp, #8
 80016c2:	4770      	bx	lr
 80016c4:	40001000 	.word	0x40001000
 80016c8:	40021000 	.word	0x40021000

080016cc <Delay_us>:
 80016cc:	b570      	push	{r4, r5, r6, lr}
 80016ce:	4d0a      	ldr	r5, [pc, #40]	; (80016f8 <Delay_us+0x2c>)
 80016d0:	0004      	movs	r4, r0
 80016d2:	0028      	movs	r0, r5
 80016d4:	f001 f956 	bl	8002984 <HAL_TIM_Base_Start>
 80016d8:	2200      	movs	r2, #0
 80016da:	682b      	ldr	r3, [r5, #0]
 80016dc:	2001      	movs	r0, #1
 80016de:	625a      	str	r2, [r3, #36]	; 0x24
 80016e0:	2c04      	cmp	r4, #4
 80016e2:	d901      	bls.n	80016e8 <Delay_us+0x1c>
 80016e4:	3c02      	subs	r4, #2
 80016e6:	b2a0      	uxth	r0, r4
 80016e8:	6a5a      	ldr	r2, [r3, #36]	; 0x24
 80016ea:	4290      	cmp	r0, r2
 80016ec:	d8fc      	bhi.n	80016e8 <Delay_us+0x1c>
 80016ee:	0028      	movs	r0, r5
 80016f0:	f001 f972 	bl	80029d8 <HAL_TIM_Base_Stop>
 80016f4:	bd70      	pop	{r4, r5, r6, pc}
 80016f6:	46c0      	nop			; (mov r8, r8)
 80016f8:	2000011c 	.word	0x2000011c

080016fc <MX_USART1_UART_Init>:
 80016fc:	480b      	ldr	r0, [pc, #44]	; (800172c <MX_USART1_UART_Init+0x30>)
 80016fe:	4b0c      	ldr	r3, [pc, #48]	; (8001730 <MX_USART1_UART_Init+0x34>)
 8001700:	b510      	push	{r4, lr}
 8001702:	6003      	str	r3, [r0, #0]
 8001704:	2396      	movs	r3, #150	; 0x96
 8001706:	019b      	lsls	r3, r3, #6
 8001708:	220c      	movs	r2, #12
 800170a:	6043      	str	r3, [r0, #4]
 800170c:	2300      	movs	r3, #0
 800170e:	6142      	str	r2, [r0, #20]
 8001710:	6083      	str	r3, [r0, #8]
 8001712:	60c3      	str	r3, [r0, #12]
 8001714:	6103      	str	r3, [r0, #16]
 8001716:	6183      	str	r3, [r0, #24]
 8001718:	61c3      	str	r3, [r0, #28]
 800171a:	6203      	str	r3, [r0, #32]
 800171c:	6243      	str	r3, [r0, #36]	; 0x24
 800171e:	f001 fcfb 	bl	8003118 <HAL_UART_Init>
 8001722:	2800      	cmp	r0, #0
 8001724:	d001      	beq.n	800172a <MX_USART1_UART_Init+0x2e>
 8001726:	f7ff fdc5 	bl	80012b4 <Error_Handler>
 800172a:	bd10      	pop	{r4, pc}
 800172c:	20000164 	.word	0x20000164
 8001730:	40013800 	.word	0x40013800

08001734 <HAL_UART_MspInit>:
 8001734:	b530      	push	{r4, r5, lr}
 8001736:	0004      	movs	r4, r0
 8001738:	b089      	sub	sp, #36	; 0x24
 800173a:	2214      	movs	r2, #20
 800173c:	2100      	movs	r1, #0
 800173e:	a803      	add	r0, sp, #12
 8001740:	f002 f88b 	bl	800385a <memset>
 8001744:	4b18      	ldr	r3, [pc, #96]	; (80017a8 <HAL_UART_MspInit+0x74>)
 8001746:	6822      	ldr	r2, [r4, #0]
 8001748:	429a      	cmp	r2, r3
 800174a:	d12a      	bne.n	80017a2 <HAL_UART_MspInit+0x6e>
 800174c:	2080      	movs	r0, #128	; 0x80
 800174e:	4b17      	ldr	r3, [pc, #92]	; (80017ac <HAL_UART_MspInit+0x78>)
 8001750:	01c0      	lsls	r0, r0, #7
 8001752:	6999      	ldr	r1, [r3, #24]
 8001754:	2500      	movs	r5, #0
 8001756:	4301      	orrs	r1, r0
 8001758:	6199      	str	r1, [r3, #24]
 800175a:	2180      	movs	r1, #128	; 0x80
 800175c:	699a      	ldr	r2, [r3, #24]
 800175e:	0289      	lsls	r1, r1, #10
 8001760:	4002      	ands	r2, r0
 8001762:	9201      	str	r2, [sp, #4]
 8001764:	9a01      	ldr	r2, [sp, #4]
 8001766:	695a      	ldr	r2, [r3, #20]
 8001768:	2090      	movs	r0, #144	; 0x90
 800176a:	430a      	orrs	r2, r1
 800176c:	615a      	str	r2, [r3, #20]
 800176e:	695b      	ldr	r3, [r3, #20]
 8001770:	2401      	movs	r4, #1
 8001772:	400b      	ands	r3, r1
 8001774:	9302      	str	r3, [sp, #8]
 8001776:	9b02      	ldr	r3, [sp, #8]
 8001778:	23c0      	movs	r3, #192	; 0xc0
 800177a:	00db      	lsls	r3, r3, #3
 800177c:	9303      	str	r3, [sp, #12]
 800177e:	2302      	movs	r3, #2
 8001780:	a903      	add	r1, sp, #12
 8001782:	9304      	str	r3, [sp, #16]
 8001784:	05c0      	lsls	r0, r0, #23
 8001786:	3301      	adds	r3, #1
 8001788:	9306      	str	r3, [sp, #24]
 800178a:	9505      	str	r5, [sp, #20]
 800178c:	9407      	str	r4, [sp, #28]
 800178e:	f000 f923 	bl	80019d8 <HAL_GPIO_Init>
 8001792:	201b      	movs	r0, #27
 8001794:	002a      	movs	r2, r5
 8001796:	0021      	movs	r1, r4
 8001798:	f000 f88c 	bl	80018b4 <HAL_NVIC_SetPriority>
 800179c:	201b      	movs	r0, #27
 800179e:	f000 f8b3 	bl	8001908 <HAL_NVIC_EnableIRQ>
 80017a2:	b009      	add	sp, #36	; 0x24
 80017a4:	bd30      	pop	{r4, r5, pc}
 80017a6:	46c0      	nop			; (mov r8, r8)
 80017a8:	40013800 	.word	0x40013800
 80017ac:	40021000 	.word	0x40021000

080017b0 <Reset_Handler>:
 80017b0:	480d      	ldr	r0, [pc, #52]	; (80017e8 <LoopForever+0x2>)
 80017b2:	4685      	mov	sp, r0
 80017b4:	480d      	ldr	r0, [pc, #52]	; (80017ec <LoopForever+0x6>)
 80017b6:	490e      	ldr	r1, [pc, #56]	; (80017f0 <LoopForever+0xa>)
 80017b8:	4a0e      	ldr	r2, [pc, #56]	; (80017f4 <LoopForever+0xe>)
 80017ba:	2300      	movs	r3, #0
 80017bc:	e002      	b.n	80017c4 <LoopCopyDataInit>

080017be <CopyDataInit>:
 80017be:	58d4      	ldr	r4, [r2, r3]
 80017c0:	50c4      	str	r4, [r0, r3]
 80017c2:	3304      	adds	r3, #4

080017c4 <LoopCopyDataInit>:
 80017c4:	18c4      	adds	r4, r0, r3
 80017c6:	428c      	cmp	r4, r1
 80017c8:	d3f9      	bcc.n	80017be <CopyDataInit>
 80017ca:	4a0b      	ldr	r2, [pc, #44]	; (80017f8 <LoopForever+0x12>)
 80017cc:	4c0b      	ldr	r4, [pc, #44]	; (80017fc <LoopForever+0x16>)
 80017ce:	2300      	movs	r3, #0
 80017d0:	e001      	b.n	80017d6 <LoopFillZerobss>

080017d2 <FillZerobss>:
 80017d2:	6013      	str	r3, [r2, #0]
 80017d4:	3204      	adds	r2, #4

080017d6 <LoopFillZerobss>:
 80017d6:	42a2      	cmp	r2, r4
 80017d8:	d3fb      	bcc.n	80017d2 <FillZerobss>
 80017da:	f7ff ff49 	bl	8001670 <SystemInit>
 80017de:	f002 f80f 	bl	8003800 <__libc_init_array>
 80017e2:	f7ff fcb5 	bl	8001150 <main>

080017e6 <LoopForever>:
 80017e6:	e7fe      	b.n	80017e6 <LoopForever>
 80017e8:	20002000 	.word	0x20002000
 80017ec:	20000000 	.word	0x20000000
 80017f0:	2000008c 	.word	0x2000008c
 80017f4:	08004b0c 	.word	0x08004b0c
 80017f8:	2000008c 	.word	0x2000008c
 80017fc:	20000278 	.word	0x20000278

08001800 <ADC1_IRQHandler>:
 8001800:	e7fe      	b.n	8001800 <ADC1_IRQHandler>
	...

08001804 <HAL_InitTick>:
 8001804:	b570      	push	{r4, r5, r6, lr}
 8001806:	0005      	movs	r5, r0
 8001808:	20fa      	movs	r0, #250	; 0xfa
 800180a:	4b0d      	ldr	r3, [pc, #52]	; (8001840 <HAL_InitTick+0x3c>)
 800180c:	0080      	lsls	r0, r0, #2
 800180e:	7819      	ldrb	r1, [r3, #0]
 8001810:	f7fe fc96 	bl	8000140 <__udivsi3>
 8001814:	4b0b      	ldr	r3, [pc, #44]	; (8001844 <HAL_InitTick+0x40>)
 8001816:	0001      	movs	r1, r0
 8001818:	6818      	ldr	r0, [r3, #0]
 800181a:	f7fe fc91 	bl	8000140 <__udivsi3>
 800181e:	f000 f87f 	bl	8001920 <HAL_SYSTICK_Config>
 8001822:	0004      	movs	r4, r0
 8001824:	2001      	movs	r0, #1
 8001826:	2c00      	cmp	r4, #0
 8001828:	d109      	bne.n	800183e <HAL_InitTick+0x3a>
 800182a:	2d03      	cmp	r5, #3
 800182c:	d807      	bhi.n	800183e <HAL_InitTick+0x3a>
 800182e:	3802      	subs	r0, #2
 8001830:	0022      	movs	r2, r4
 8001832:	0029      	movs	r1, r5
 8001834:	f000 f83e 	bl	80018b4 <HAL_NVIC_SetPriority>
 8001838:	0020      	movs	r0, r4
 800183a:	4b03      	ldr	r3, [pc, #12]	; (8001848 <HAL_InitTick+0x44>)
 800183c:	601d      	str	r5, [r3, #0]
 800183e:	bd70      	pop	{r4, r5, r6, pc}
 8001840:	20000020 	.word	0x20000020
 8001844:	2000001c 	.word	0x2000001c
 8001848:	20000024 	.word	0x20000024

0800184c <HAL_Init>:
 800184c:	2310      	movs	r3, #16
 800184e:	4a06      	ldr	r2, [pc, #24]	; (8001868 <HAL_Init+0x1c>)
 8001850:	b510      	push	{r4, lr}
 8001852:	6811      	ldr	r1, [r2, #0]
 8001854:	2000      	movs	r0, #0
 8001856:	430b      	orrs	r3, r1
 8001858:	6013      	str	r3, [r2, #0]
 800185a:	f7ff ffd3 	bl	8001804 <HAL_InitTick>
 800185e:	f7ff feb5 	bl	80015cc <HAL_MspInit>
 8001862:	2000      	movs	r0, #0
 8001864:	bd10      	pop	{r4, pc}
 8001866:	46c0      	nop			; (mov r8, r8)
 8001868:	40022000 	.word	0x40022000

0800186c <HAL_IncTick>:
 800186c:	4a03      	ldr	r2, [pc, #12]	; (800187c <HAL_IncTick+0x10>)
 800186e:	4b04      	ldr	r3, [pc, #16]	; (8001880 <HAL_IncTick+0x14>)
 8001870:	6811      	ldr	r1, [r2, #0]
 8001872:	781b      	ldrb	r3, [r3, #0]
 8001874:	185b      	adds	r3, r3, r1
 8001876:	6013      	str	r3, [r2, #0]
 8001878:	4770      	bx	lr
 800187a:	46c0      	nop			; (mov r8, r8)
 800187c:	200001e8 	.word	0x200001e8
 8001880:	20000020 	.word	0x20000020

08001884 <HAL_GetTick>:
 8001884:	4b01      	ldr	r3, [pc, #4]	; (800188c <HAL_GetTick+0x8>)
 8001886:	6818      	ldr	r0, [r3, #0]
 8001888:	4770      	bx	lr
 800188a:	46c0      	nop			; (mov r8, r8)
 800188c:	200001e8 	.word	0x200001e8

08001890 <HAL_Delay>:
 8001890:	b570      	push	{r4, r5, r6, lr}
 8001892:	0004      	movs	r4, r0
 8001894:	f7ff fff6 	bl	8001884 <HAL_GetTick>
 8001898:	0005      	movs	r5, r0
 800189a:	1c63      	adds	r3, r4, #1
 800189c:	d002      	beq.n	80018a4 <HAL_Delay+0x14>
 800189e:	4b04      	ldr	r3, [pc, #16]	; (80018b0 <HAL_Delay+0x20>)
 80018a0:	781b      	ldrb	r3, [r3, #0]
 80018a2:	18e4      	adds	r4, r4, r3
 80018a4:	f7ff ffee 	bl	8001884 <HAL_GetTick>
 80018a8:	1b40      	subs	r0, r0, r5
 80018aa:	42a0      	cmp	r0, r4
 80018ac:	d3fa      	bcc.n	80018a4 <HAL_Delay+0x14>
 80018ae:	bd70      	pop	{r4, r5, r6, pc}
 80018b0:	20000020 	.word	0x20000020

080018b4 <HAL_NVIC_SetPriority>:
 80018b4:	b530      	push	{r4, r5, lr}
 80018b6:	25ff      	movs	r5, #255	; 0xff
 80018b8:	2403      	movs	r4, #3
 80018ba:	002a      	movs	r2, r5
 80018bc:	4004      	ands	r4, r0
 80018be:	00e4      	lsls	r4, r4, #3
 80018c0:	40a2      	lsls	r2, r4
 80018c2:	0189      	lsls	r1, r1, #6
 80018c4:	4029      	ands	r1, r5
 80018c6:	43d2      	mvns	r2, r2
 80018c8:	40a1      	lsls	r1, r4
 80018ca:	b2c3      	uxtb	r3, r0
 80018cc:	2800      	cmp	r0, #0
 80018ce:	db0a      	blt.n	80018e6 <HAL_NVIC_SetPriority+0x32>
 80018d0:	24c0      	movs	r4, #192	; 0xc0
 80018d2:	4b0b      	ldr	r3, [pc, #44]	; (8001900 <HAL_NVIC_SetPriority+0x4c>)
 80018d4:	0880      	lsrs	r0, r0, #2
 80018d6:	0080      	lsls	r0, r0, #2
 80018d8:	18c0      	adds	r0, r0, r3
 80018da:	00a4      	lsls	r4, r4, #2
 80018dc:	5903      	ldr	r3, [r0, r4]
 80018de:	401a      	ands	r2, r3
 80018e0:	4311      	orrs	r1, r2
 80018e2:	5101      	str	r1, [r0, r4]
 80018e4:	bd30      	pop	{r4, r5, pc}
 80018e6:	200f      	movs	r0, #15
 80018e8:	4003      	ands	r3, r0
 80018ea:	3b08      	subs	r3, #8
 80018ec:	4805      	ldr	r0, [pc, #20]	; (8001904 <HAL_NVIC_SetPriority+0x50>)
 80018ee:	089b      	lsrs	r3, r3, #2
 80018f0:	009b      	lsls	r3, r3, #2
 80018f2:	181b      	adds	r3, r3, r0
 80018f4:	69d8      	ldr	r0, [r3, #28]
 80018f6:	4002      	ands	r2, r0
 80018f8:	4311      	orrs	r1, r2
 80018fa:	61d9      	str	r1, [r3, #28]
 80018fc:	e7f2      	b.n	80018e4 <HAL_NVIC_SetPriority+0x30>
 80018fe:	46c0      	nop			; (mov r8, r8)
 8001900:	e000e100 	.word	0xe000e100
 8001904:	e000ed00 	.word	0xe000ed00

08001908 <HAL_NVIC_EnableIRQ>:
 8001908:	2800      	cmp	r0, #0
 800190a:	db05      	blt.n	8001918 <HAL_NVIC_EnableIRQ+0x10>
 800190c:	231f      	movs	r3, #31
 800190e:	4018      	ands	r0, r3
 8001910:	3b1e      	subs	r3, #30
 8001912:	4083      	lsls	r3, r0
 8001914:	4a01      	ldr	r2, [pc, #4]	; (800191c <HAL_NVIC_EnableIRQ+0x14>)
 8001916:	6013      	str	r3, [r2, #0]
 8001918:	4770      	bx	lr
 800191a:	46c0      	nop			; (mov r8, r8)
 800191c:	e000e100 	.word	0xe000e100

08001920 <HAL_SYSTICK_Config>:
 8001920:	2280      	movs	r2, #128	; 0x80
 8001922:	1e43      	subs	r3, r0, #1
 8001924:	0452      	lsls	r2, r2, #17
 8001926:	2001      	movs	r0, #1
 8001928:	4293      	cmp	r3, r2
 800192a:	d20d      	bcs.n	8001948 <HAL_SYSTICK_Config+0x28>
 800192c:	21c0      	movs	r1, #192	; 0xc0
 800192e:	4a07      	ldr	r2, [pc, #28]	; (800194c <HAL_SYSTICK_Config+0x2c>)
 8001930:	4807      	ldr	r0, [pc, #28]	; (8001950 <HAL_SYSTICK_Config+0x30>)
 8001932:	6053      	str	r3, [r2, #4]
 8001934:	6a03      	ldr	r3, [r0, #32]
 8001936:	0609      	lsls	r1, r1, #24
 8001938:	021b      	lsls	r3, r3, #8
 800193a:	0a1b      	lsrs	r3, r3, #8
 800193c:	430b      	orrs	r3, r1
 800193e:	6203      	str	r3, [r0, #32]
 8001940:	2000      	movs	r0, #0
 8001942:	2307      	movs	r3, #7
 8001944:	6090      	str	r0, [r2, #8]
 8001946:	6013      	str	r3, [r2, #0]
 8001948:	4770      	bx	lr
 800194a:	46c0      	nop			; (mov r8, r8)
 800194c:	e000e010 	.word	0xe000e010
 8001950:	e000ed00 	.word	0xe000ed00

08001954 <HAL_DMA_Abort>:
 8001954:	b530      	push	{r4, r5, lr}
 8001956:	1c85      	adds	r5, r0, #2
 8001958:	7feb      	ldrb	r3, [r5, #31]
 800195a:	1c44      	adds	r4, r0, #1
 800195c:	2b02      	cmp	r3, #2
 800195e:	d005      	beq.n	800196c <HAL_DMA_Abort+0x18>
 8001960:	2304      	movs	r3, #4
 8001962:	6383      	str	r3, [r0, #56]	; 0x38
 8001964:	2300      	movs	r3, #0
 8001966:	2001      	movs	r0, #1
 8001968:	77e3      	strb	r3, [r4, #31]
 800196a:	bd30      	pop	{r4, r5, pc}
 800196c:	210e      	movs	r1, #14
 800196e:	6803      	ldr	r3, [r0, #0]
 8001970:	681a      	ldr	r2, [r3, #0]
 8001972:	438a      	bics	r2, r1
 8001974:	601a      	str	r2, [r3, #0]
 8001976:	2201      	movs	r2, #1
 8001978:	6819      	ldr	r1, [r3, #0]
 800197a:	4391      	bics	r1, r2
 800197c:	6019      	str	r1, [r3, #0]
 800197e:	6c01      	ldr	r1, [r0, #64]	; 0x40
 8001980:	6bc3      	ldr	r3, [r0, #60]	; 0x3c
 8001982:	0010      	movs	r0, r2
 8001984:	4088      	lsls	r0, r1
 8001986:	6058      	str	r0, [r3, #4]
 8001988:	2000      	movs	r0, #0
 800198a:	77ea      	strb	r2, [r5, #31]
 800198c:	77e0      	strb	r0, [r4, #31]
 800198e:	e7ec      	b.n	800196a <HAL_DMA_Abort+0x16>

08001990 <HAL_DMA_Abort_IT>:
 8001990:	b570      	push	{r4, r5, r6, lr}
 8001992:	1c84      	adds	r4, r0, #2
 8001994:	7fe3      	ldrb	r3, [r4, #31]
 8001996:	2b02      	cmp	r3, #2
 8001998:	d004      	beq.n	80019a4 <HAL_DMA_Abort_IT+0x14>
 800199a:	2304      	movs	r3, #4
 800199c:	6383      	str	r3, [r0, #56]	; 0x38
 800199e:	3b03      	subs	r3, #3
 80019a0:	0018      	movs	r0, r3
 80019a2:	bd70      	pop	{r4, r5, r6, pc}
 80019a4:	210e      	movs	r1, #14
 80019a6:	6803      	ldr	r3, [r0, #0]
 80019a8:	6c05      	ldr	r5, [r0, #64]	; 0x40
 80019aa:	681a      	ldr	r2, [r3, #0]
 80019ac:	438a      	bics	r2, r1
 80019ae:	601a      	str	r2, [r3, #0]
 80019b0:	2201      	movs	r2, #1
 80019b2:	6819      	ldr	r1, [r3, #0]
 80019b4:	4391      	bics	r1, r2
 80019b6:	6019      	str	r1, [r3, #0]
 80019b8:	0011      	movs	r1, r2
 80019ba:	40a9      	lsls	r1, r5
 80019bc:	6bc3      	ldr	r3, [r0, #60]	; 0x3c
 80019be:	6059      	str	r1, [r3, #4]
 80019c0:	77e2      	strb	r2, [r4, #31]
 80019c2:	2400      	movs	r4, #0
 80019c4:	1883      	adds	r3, r0, r2
 80019c6:	77dc      	strb	r4, [r3, #31]
 80019c8:	6b42      	ldr	r2, [r0, #52]	; 0x34
 80019ca:	0013      	movs	r3, r2
 80019cc:	42a2      	cmp	r2, r4
 80019ce:	d0e7      	beq.n	80019a0 <HAL_DMA_Abort_IT+0x10>
 80019d0:	4790      	blx	r2
 80019d2:	0023      	movs	r3, r4
 80019d4:	e7e4      	b.n	80019a0 <HAL_DMA_Abort_IT+0x10>
	...

080019d8 <HAL_GPIO_Init>:
 80019d8:	2300      	movs	r3, #0
 80019da:	b5f0      	push	{r4, r5, r6, r7, lr}
 80019dc:	b087      	sub	sp, #28
 80019de:	680a      	ldr	r2, [r1, #0]
 80019e0:	0014      	movs	r4, r2
 80019e2:	40dc      	lsrs	r4, r3
 80019e4:	d101      	bne.n	80019ea <HAL_GPIO_Init+0x12>
 80019e6:	b007      	add	sp, #28
 80019e8:	bdf0      	pop	{r4, r5, r6, r7, pc}
 80019ea:	2401      	movs	r4, #1
 80019ec:	0015      	movs	r5, r2
 80019ee:	409c      	lsls	r4, r3
 80019f0:	4025      	ands	r5, r4
 80019f2:	9502      	str	r5, [sp, #8]
 80019f4:	4222      	tst	r2, r4
 80019f6:	d100      	bne.n	80019fa <HAL_GPIO_Init+0x22>
 80019f8:	e091      	b.n	8001b1e <HAL_GPIO_Init+0x146>
 80019fa:	2510      	movs	r5, #16
 80019fc:	684a      	ldr	r2, [r1, #4]
 80019fe:	005e      	lsls	r6, r3, #1
 8001a00:	9201      	str	r2, [sp, #4]
 8001a02:	43aa      	bics	r2, r5
 8001a04:	3d0d      	subs	r5, #13
 8001a06:	40b5      	lsls	r5, r6
 8001a08:	4694      	mov	ip, r2
 8001a0a:	3a01      	subs	r2, #1
 8001a0c:	43ed      	mvns	r5, r5
 8001a0e:	2a01      	cmp	r2, #1
 8001a10:	d80f      	bhi.n	8001a32 <HAL_GPIO_Init+0x5a>
 8001a12:	68ca      	ldr	r2, [r1, #12]
 8001a14:	6887      	ldr	r7, [r0, #8]
 8001a16:	40b2      	lsls	r2, r6
 8001a18:	402f      	ands	r7, r5
 8001a1a:	433a      	orrs	r2, r7
 8001a1c:	2701      	movs	r7, #1
 8001a1e:	6082      	str	r2, [r0, #8]
 8001a20:	6842      	ldr	r2, [r0, #4]
 8001a22:	43a2      	bics	r2, r4
 8001a24:	0014      	movs	r4, r2
 8001a26:	9a01      	ldr	r2, [sp, #4]
 8001a28:	0912      	lsrs	r2, r2, #4
 8001a2a:	403a      	ands	r2, r7
 8001a2c:	409a      	lsls	r2, r3
 8001a2e:	4322      	orrs	r2, r4
 8001a30:	6042      	str	r2, [r0, #4]
 8001a32:	688a      	ldr	r2, [r1, #8]
 8001a34:	68c4      	ldr	r4, [r0, #12]
 8001a36:	40b2      	lsls	r2, r6
 8001a38:	402c      	ands	r4, r5
 8001a3a:	4322      	orrs	r2, r4
 8001a3c:	60c2      	str	r2, [r0, #12]
 8001a3e:	4662      	mov	r2, ip
 8001a40:	2a02      	cmp	r2, #2
 8001a42:	d10f      	bne.n	8001a64 <HAL_GPIO_Init+0x8c>
 8001a44:	08da      	lsrs	r2, r3, #3
 8001a46:	2407      	movs	r4, #7
 8001a48:	0092      	lsls	r2, r2, #2
 8001a4a:	1882      	adds	r2, r0, r2
 8001a4c:	6a17      	ldr	r7, [r2, #32]
 8001a4e:	9203      	str	r2, [sp, #12]
 8001a50:	220f      	movs	r2, #15
 8001a52:	401c      	ands	r4, r3
 8001a54:	00a4      	lsls	r4, r4, #2
 8001a56:	40a2      	lsls	r2, r4
 8001a58:	4397      	bics	r7, r2
 8001a5a:	690a      	ldr	r2, [r1, #16]
 8001a5c:	40a2      	lsls	r2, r4
 8001a5e:	4317      	orrs	r7, r2
 8001a60:	9a03      	ldr	r2, [sp, #12]
 8001a62:	6217      	str	r7, [r2, #32]
 8001a64:	2403      	movs	r4, #3
 8001a66:	6802      	ldr	r2, [r0, #0]
 8001a68:	4015      	ands	r5, r2
 8001a6a:	9a01      	ldr	r2, [sp, #4]
 8001a6c:	4022      	ands	r2, r4
 8001a6e:	40b2      	lsls	r2, r6
 8001a70:	2480      	movs	r4, #128	; 0x80
 8001a72:	4315      	orrs	r5, r2
 8001a74:	9a01      	ldr	r2, [sp, #4]
 8001a76:	0564      	lsls	r4, r4, #21
 8001a78:	6005      	str	r5, [r0, #0]
 8001a7a:	4222      	tst	r2, r4
 8001a7c:	d04f      	beq.n	8001b1e <HAL_GPIO_Init+0x146>
 8001a7e:	2501      	movs	r5, #1
 8001a80:	270f      	movs	r7, #15
 8001a82:	4a28      	ldr	r2, [pc, #160]	; (8001b24 <HAL_GPIO_Init+0x14c>)
 8001a84:	6994      	ldr	r4, [r2, #24]
 8001a86:	432c      	orrs	r4, r5
 8001a88:	6194      	str	r4, [r2, #24]
 8001a8a:	6992      	ldr	r2, [r2, #24]
 8001a8c:	089c      	lsrs	r4, r3, #2
 8001a8e:	402a      	ands	r2, r5
 8001a90:	3502      	adds	r5, #2
 8001a92:	401d      	ands	r5, r3
 8001a94:	00ad      	lsls	r5, r5, #2
 8001a96:	40af      	lsls	r7, r5
 8001a98:	9205      	str	r2, [sp, #20]
 8001a9a:	9a05      	ldr	r2, [sp, #20]
 8001a9c:	4a22      	ldr	r2, [pc, #136]	; (8001b28 <HAL_GPIO_Init+0x150>)
 8001a9e:	00a4      	lsls	r4, r4, #2
 8001aa0:	18a4      	adds	r4, r4, r2
 8001aa2:	68a6      	ldr	r6, [r4, #8]
 8001aa4:	2200      	movs	r2, #0
 8001aa6:	43be      	bics	r6, r7
 8001aa8:	2790      	movs	r7, #144	; 0x90
 8001aaa:	05ff      	lsls	r7, r7, #23
 8001aac:	42b8      	cmp	r0, r7
 8001aae:	d00c      	beq.n	8001aca <HAL_GPIO_Init+0xf2>
 8001ab0:	4f1e      	ldr	r7, [pc, #120]	; (8001b2c <HAL_GPIO_Init+0x154>)
 8001ab2:	3201      	adds	r2, #1
 8001ab4:	42b8      	cmp	r0, r7
 8001ab6:	d008      	beq.n	8001aca <HAL_GPIO_Init+0xf2>
 8001ab8:	4f1d      	ldr	r7, [pc, #116]	; (8001b30 <HAL_GPIO_Init+0x158>)
 8001aba:	3201      	adds	r2, #1
 8001abc:	42b8      	cmp	r0, r7
 8001abe:	d004      	beq.n	8001aca <HAL_GPIO_Init+0xf2>
 8001ac0:	4f1c      	ldr	r7, [pc, #112]	; (8001b34 <HAL_GPIO_Init+0x15c>)
 8001ac2:	3201      	adds	r2, #1
 8001ac4:	42b8      	cmp	r0, r7
 8001ac6:	d000      	beq.n	8001aca <HAL_GPIO_Init+0xf2>
 8001ac8:	3202      	adds	r2, #2
 8001aca:	40aa      	lsls	r2, r5
 8001acc:	4332      	orrs	r2, r6
 8001ace:	60a2      	str	r2, [r4, #8]
 8001ad0:	4a19      	ldr	r2, [pc, #100]	; (8001b38 <HAL_GPIO_Init+0x160>)
 8001ad2:	9c02      	ldr	r4, [sp, #8]
 8001ad4:	6816      	ldr	r6, [r2, #0]
 8001ad6:	9d02      	ldr	r5, [sp, #8]
 8001ad8:	9f01      	ldr	r7, [sp, #4]
 8001ada:	43e4      	mvns	r4, r4
 8001adc:	4335      	orrs	r5, r6
 8001ade:	03ff      	lsls	r7, r7, #15
 8001ae0:	d401      	bmi.n	8001ae6 <HAL_GPIO_Init+0x10e>
 8001ae2:	0035      	movs	r5, r6
 8001ae4:	4025      	ands	r5, r4
 8001ae6:	6015      	str	r5, [r2, #0]
 8001ae8:	6856      	ldr	r6, [r2, #4]
 8001aea:	9d02      	ldr	r5, [sp, #8]
 8001aec:	9f01      	ldr	r7, [sp, #4]
 8001aee:	4335      	orrs	r5, r6
 8001af0:	03bf      	lsls	r7, r7, #14
 8001af2:	d401      	bmi.n	8001af8 <HAL_GPIO_Init+0x120>
 8001af4:	0035      	movs	r5, r6
 8001af6:	4025      	ands	r5, r4
 8001af8:	6055      	str	r5, [r2, #4]
 8001afa:	6896      	ldr	r6, [r2, #8]
 8001afc:	9d02      	ldr	r5, [sp, #8]
 8001afe:	9f01      	ldr	r7, [sp, #4]
 8001b00:	4335      	orrs	r5, r6
 8001b02:	02ff      	lsls	r7, r7, #11
 8001b04:	d401      	bmi.n	8001b0a <HAL_GPIO_Init+0x132>
 8001b06:	0035      	movs	r5, r6
 8001b08:	4025      	ands	r5, r4
 8001b0a:	6095      	str	r5, [r2, #8]
 8001b0c:	68d5      	ldr	r5, [r2, #12]
 8001b0e:	9e02      	ldr	r6, [sp, #8]
 8001b10:	9f01      	ldr	r7, [sp, #4]
 8001b12:	432e      	orrs	r6, r5
 8001b14:	02bf      	lsls	r7, r7, #10
 8001b16:	d401      	bmi.n	8001b1c <HAL_GPIO_Init+0x144>
 8001b18:	4025      	ands	r5, r4
 8001b1a:	002e      	movs	r6, r5
 8001b1c:	60d6      	str	r6, [r2, #12]
 8001b1e:	3301      	adds	r3, #1
 8001b20:	e75d      	b.n	80019de <HAL_GPIO_Init+0x6>
 8001b22:	46c0      	nop			; (mov r8, r8)
 8001b24:	40021000 	.word	0x40021000
 8001b28:	40010000 	.word	0x40010000
 8001b2c:	48000400 	.word	0x48000400
 8001b30:	48000800 	.word	0x48000800
 8001b34:	48000c00 	.word	0x48000c00
 8001b38:	40010400 	.word	0x40010400

08001b3c <HAL_GPIO_ReadPin>:
 8001b3c:	6900      	ldr	r0, [r0, #16]
 8001b3e:	4008      	ands	r0, r1
 8001b40:	1e41      	subs	r1, r0, #1
 8001b42:	4188      	sbcs	r0, r1
 8001b44:	b2c0      	uxtb	r0, r0
 8001b46:	4770      	bx	lr

08001b48 <HAL_GPIO_WritePin>:
 8001b48:	2a00      	cmp	r2, #0
 8001b4a:	d001      	beq.n	8001b50 <HAL_GPIO_WritePin+0x8>
 8001b4c:	6181      	str	r1, [r0, #24]
 8001b4e:	4770      	bx	lr
 8001b50:	6281      	str	r1, [r0, #40]	; 0x28
 8001b52:	e7fc      	b.n	8001b4e <HAL_GPIO_WritePin+0x6>

08001b54 <I2C_Flush_TXDR>:
 8001b54:	6803      	ldr	r3, [r0, #0]
 8001b56:	699a      	ldr	r2, [r3, #24]
 8001b58:	0792      	lsls	r2, r2, #30
 8001b5a:	d501      	bpl.n	8001b60 <I2C_Flush_TXDR+0xc>
 8001b5c:	2200      	movs	r2, #0
 8001b5e:	629a      	str	r2, [r3, #40]	; 0x28
 8001b60:	2201      	movs	r2, #1
 8001b62:	6999      	ldr	r1, [r3, #24]
 8001b64:	4211      	tst	r1, r2
 8001b66:	d102      	bne.n	8001b6e <I2C_Flush_TXDR+0x1a>
 8001b68:	6999      	ldr	r1, [r3, #24]
 8001b6a:	430a      	orrs	r2, r1
 8001b6c:	619a      	str	r2, [r3, #24]
 8001b6e:	4770      	bx	lr

08001b70 <I2C_TransferConfig>:
 8001b70:	b530      	push	{r4, r5, lr}
 8001b72:	9c03      	ldr	r4, [sp, #12]
 8001b74:	0412      	lsls	r2, r2, #16
 8001b76:	6800      	ldr	r0, [r0, #0]
 8001b78:	4322      	orrs	r2, r4
 8001b7a:	431a      	orrs	r2, r3
 8001b7c:	4b05      	ldr	r3, [pc, #20]	; (8001b94 <I2C_TransferConfig+0x24>)
 8001b7e:	6845      	ldr	r5, [r0, #4]
 8001b80:	0589      	lsls	r1, r1, #22
 8001b82:	0d64      	lsrs	r4, r4, #21
 8001b84:	0d89      	lsrs	r1, r1, #22
 8001b86:	431c      	orrs	r4, r3
 8001b88:	43a5      	bics	r5, r4
 8001b8a:	430a      	orrs	r2, r1
 8001b8c:	432a      	orrs	r2, r5
 8001b8e:	6042      	str	r2, [r0, #4]
 8001b90:	bd30      	pop	{r4, r5, pc}
 8001b92:	46c0      	nop			; (mov r8, r8)
 8001b94:	03ff63ff 	.word	0x03ff63ff

08001b98 <I2C_IsAcknowledgeFailed>:
 8001b98:	b5f8      	push	{r3, r4, r5, r6, r7, lr}
 8001b9a:	6803      	ldr	r3, [r0, #0]
 8001b9c:	0016      	movs	r6, r2
 8001b9e:	699a      	ldr	r2, [r3, #24]
 8001ba0:	0004      	movs	r4, r0
 8001ba2:	2310      	movs	r3, #16
 8001ba4:	0010      	movs	r0, r2
 8001ba6:	000d      	movs	r5, r1
 8001ba8:	2720      	movs	r7, #32
 8001baa:	4018      	ands	r0, r3
 8001bac:	421a      	tst	r2, r3
 8001bae:	d118      	bne.n	8001be2 <I2C_IsAcknowledgeFailed+0x4a>
 8001bb0:	bdf8      	pop	{r3, r4, r5, r6, r7, pc}
 8001bb2:	1c6a      	adds	r2, r5, #1
 8001bb4:	d016      	beq.n	8001be4 <I2C_IsAcknowledgeFailed+0x4c>
 8001bb6:	f7ff fe65 	bl	8001884 <HAL_GetTick>
 8001bba:	1b80      	subs	r0, r0, r6
 8001bbc:	42a8      	cmp	r0, r5
 8001bbe:	d801      	bhi.n	8001bc4 <I2C_IsAcknowledgeFailed+0x2c>
 8001bc0:	2d00      	cmp	r5, #0
 8001bc2:	d10e      	bne.n	8001be2 <I2C_IsAcknowledgeFailed+0x4a>
 8001bc4:	2220      	movs	r2, #32
 8001bc6:	6c63      	ldr	r3, [r4, #68]	; 0x44
 8001bc8:	4313      	orrs	r3, r2
 8001bca:	6463      	str	r3, [r4, #68]	; 0x44
 8001bcc:	0023      	movs	r3, r4
 8001bce:	3341      	adds	r3, #65	; 0x41
 8001bd0:	701a      	strb	r2, [r3, #0]
 8001bd2:	0022      	movs	r2, r4
 8001bd4:	2300      	movs	r3, #0
 8001bd6:	3242      	adds	r2, #66	; 0x42
 8001bd8:	3440      	adds	r4, #64	; 0x40
 8001bda:	7013      	strb	r3, [r2, #0]
 8001bdc:	2001      	movs	r0, #1
 8001bde:	7023      	strb	r3, [r4, #0]
 8001be0:	e7e6      	b.n	8001bb0 <I2C_IsAcknowledgeFailed+0x18>
 8001be2:	6823      	ldr	r3, [r4, #0]
 8001be4:	699a      	ldr	r2, [r3, #24]
 8001be6:	423a      	tst	r2, r7
 8001be8:	d0e3      	beq.n	8001bb2 <I2C_IsAcknowledgeFailed+0x1a>
 8001bea:	2210      	movs	r2, #16
 8001bec:	0020      	movs	r0, r4
 8001bee:	61da      	str	r2, [r3, #28]
 8001bf0:	61df      	str	r7, [r3, #28]
 8001bf2:	f7ff ffaf 	bl	8001b54 <I2C_Flush_TXDR>
 8001bf6:	6822      	ldr	r2, [r4, #0]
 8001bf8:	4905      	ldr	r1, [pc, #20]	; (8001c10 <I2C_IsAcknowledgeFailed+0x78>)
 8001bfa:	6853      	ldr	r3, [r2, #4]
 8001bfc:	400b      	ands	r3, r1
 8001bfe:	6053      	str	r3, [r2, #4]
 8001c00:	2304      	movs	r3, #4
 8001c02:	6c62      	ldr	r2, [r4, #68]	; 0x44
 8001c04:	4313      	orrs	r3, r2
 8001c06:	6463      	str	r3, [r4, #68]	; 0x44
 8001c08:	0023      	movs	r3, r4
 8001c0a:	3341      	adds	r3, #65	; 0x41
 8001c0c:	701f      	strb	r7, [r3, #0]
 8001c0e:	e7e0      	b.n	8001bd2 <I2C_IsAcknowledgeFailed+0x3a>
 8001c10:	fe00e800 	.word	0xfe00e800

08001c14 <I2C_WaitOnRXNEFlagUntilTimeout>:
 8001c14:	b5f8      	push	{r3, r4, r5, r6, r7, lr}
 8001c16:	0004      	movs	r4, r0
 8001c18:	000d      	movs	r5, r1
 8001c1a:	0016      	movs	r6, r2
 8001c1c:	2720      	movs	r7, #32
 8001c1e:	2204      	movs	r2, #4
 8001c20:	6823      	ldr	r3, [r4, #0]
 8001c22:	699b      	ldr	r3, [r3, #24]
 8001c24:	4213      	tst	r3, r2
 8001c26:	d111      	bne.n	8001c4c <I2C_WaitOnRXNEFlagUntilTimeout+0x38>
 8001c28:	0032      	movs	r2, r6
 8001c2a:	0029      	movs	r1, r5
 8001c2c:	0020      	movs	r0, r4
 8001c2e:	f7ff ffb3 	bl	8001b98 <I2C_IsAcknowledgeFailed>
 8001c32:	2800      	cmp	r0, #0
 8001c34:	d119      	bne.n	8001c6a <I2C_WaitOnRXNEFlagUntilTimeout+0x56>
 8001c36:	6823      	ldr	r3, [r4, #0]
 8001c38:	699a      	ldr	r2, [r3, #24]
 8001c3a:	423a      	tst	r2, r7
 8001c3c:	d017      	beq.n	8001c6e <I2C_WaitOnRXNEFlagUntilTimeout+0x5a>
 8001c3e:	2104      	movs	r1, #4
 8001c40:	699a      	ldr	r2, [r3, #24]
 8001c42:	420a      	tst	r2, r1
 8001c44:	d004      	beq.n	8001c50 <I2C_WaitOnRXNEFlagUntilTimeout+0x3c>
 8001c46:	8d22      	ldrh	r2, [r4, #40]	; 0x28
 8001c48:	2a00      	cmp	r2, #0
 8001c4a:	d001      	beq.n	8001c50 <I2C_WaitOnRXNEFlagUntilTimeout+0x3c>
 8001c4c:	2000      	movs	r0, #0
 8001c4e:	bdf8      	pop	{r3, r4, r5, r6, r7, pc}
 8001c50:	61df      	str	r7, [r3, #28]
 8001c52:	685a      	ldr	r2, [r3, #4]
 8001c54:	490e      	ldr	r1, [pc, #56]	; (8001c90 <I2C_WaitOnRXNEFlagUntilTimeout+0x7c>)
 8001c56:	400a      	ands	r2, r1
 8001c58:	605a      	str	r2, [r3, #4]
 8001c5a:	0022      	movs	r2, r4
 8001c5c:	2300      	movs	r3, #0
 8001c5e:	3241      	adds	r2, #65	; 0x41
 8001c60:	6463      	str	r3, [r4, #68]	; 0x44
 8001c62:	7017      	strb	r7, [r2, #0]
 8001c64:	3440      	adds	r4, #64	; 0x40
 8001c66:	7053      	strb	r3, [r2, #1]
 8001c68:	7023      	strb	r3, [r4, #0]
 8001c6a:	2001      	movs	r0, #1
 8001c6c:	e7ef      	b.n	8001c4e <I2C_WaitOnRXNEFlagUntilTimeout+0x3a>
 8001c6e:	f7ff fe09 	bl	8001884 <HAL_GetTick>
 8001c72:	1b80      	subs	r0, r0, r6
 8001c74:	42a8      	cmp	r0, r5
 8001c76:	d801      	bhi.n	8001c7c <I2C_WaitOnRXNEFlagUntilTimeout+0x68>
 8001c78:	2d00      	cmp	r5, #0
 8001c7a:	d1d0      	bne.n	8001c1e <I2C_WaitOnRXNEFlagUntilTimeout+0xa>
 8001c7c:	2220      	movs	r2, #32
 8001c7e:	6c63      	ldr	r3, [r4, #68]	; 0x44
 8001c80:	4313      	orrs	r3, r2
 8001c82:	6463      	str	r3, [r4, #68]	; 0x44
 8001c84:	0023      	movs	r3, r4
 8001c86:	3341      	adds	r3, #65	; 0x41
 8001c88:	701a      	strb	r2, [r3, #0]
 8001c8a:	3440      	adds	r4, #64	; 0x40
 8001c8c:	2300      	movs	r3, #0
 8001c8e:	e7eb      	b.n	8001c68 <I2C_WaitOnRXNEFlagUntilTimeout+0x54>
 8001c90:	fe00e800 	.word	0xfe00e800

08001c94 <I2C_WaitOnSTOPFlagUntilTimeout>:
 8001c94:	b5f8      	push	{r3, r4, r5, r6, r7, lr}
 8001c96:	0004      	movs	r4, r0
 8001c98:	000d      	movs	r5, r1
 8001c9a:	0016      	movs	r6, r2
 8001c9c:	2720      	movs	r7, #32
 8001c9e:	6823      	ldr	r3, [r4, #0]
 8001ca0:	699b      	ldr	r3, [r3, #24]
 8001ca2:	423b      	tst	r3, r7
 8001ca4:	d001      	beq.n	8001caa <I2C_WaitOnSTOPFlagUntilTimeout+0x16>
 8001ca6:	2000      	movs	r0, #0
 8001ca8:	bdf8      	pop	{r3, r4, r5, r6, r7, pc}
 8001caa:	0032      	movs	r2, r6
 8001cac:	0029      	movs	r1, r5
 8001cae:	0020      	movs	r0, r4
 8001cb0:	f7ff ff72 	bl	8001b98 <I2C_IsAcknowledgeFailed>
 8001cb4:	2800      	cmp	r0, #0
 8001cb6:	d113      	bne.n	8001ce0 <I2C_WaitOnSTOPFlagUntilTimeout+0x4c>
 8001cb8:	f7ff fde4 	bl	8001884 <HAL_GetTick>
 8001cbc:	1b80      	subs	r0, r0, r6
 8001cbe:	42a8      	cmp	r0, r5
 8001cc0:	d801      	bhi.n	8001cc6 <I2C_WaitOnSTOPFlagUntilTimeout+0x32>
 8001cc2:	2d00      	cmp	r5, #0
 8001cc4:	d1eb      	bne.n	8001c9e <I2C_WaitOnSTOPFlagUntilTimeout+0xa>
 8001cc6:	2220      	movs	r2, #32
 8001cc8:	6c63      	ldr	r3, [r4, #68]	; 0x44
 8001cca:	4313      	orrs	r3, r2
 8001ccc:	6463      	str	r3, [r4, #68]	; 0x44
 8001cce:	0023      	movs	r3, r4
 8001cd0:	3341      	adds	r3, #65	; 0x41
 8001cd2:	701a      	strb	r2, [r3, #0]
 8001cd4:	0022      	movs	r2, r4
 8001cd6:	2300      	movs	r3, #0
 8001cd8:	3242      	adds	r2, #66	; 0x42
 8001cda:	3440      	adds	r4, #64	; 0x40
 8001cdc:	7013      	strb	r3, [r2, #0]
 8001cde:	7023      	strb	r3, [r4, #0]
 8001ce0:	2001      	movs	r0, #1
 8001ce2:	e7e1      	b.n	8001ca8 <I2C_WaitOnSTOPFlagUntilTimeout+0x14>

08001ce4 <I2C_WaitOnFlagUntilTimeout>:
 8001ce4:	b5f8      	push	{r3, r4, r5, r6, r7, lr}
 8001ce6:	0004      	movs	r4, r0
 8001ce8:	000e      	movs	r6, r1
 8001cea:	0017      	movs	r7, r2
 8001cec:	001d      	movs	r5, r3
 8001cee:	6822      	ldr	r2, [r4, #0]
 8001cf0:	6993      	ldr	r3, [r2, #24]
 8001cf2:	4033      	ands	r3, r6
 8001cf4:	1b9b      	subs	r3, r3, r6
 8001cf6:	4259      	negs	r1, r3
 8001cf8:	414b      	adcs	r3, r1
 8001cfa:	42bb      	cmp	r3, r7
 8001cfc:	d001      	beq.n	8001d02 <I2C_WaitOnFlagUntilTimeout+0x1e>
 8001cfe:	2000      	movs	r0, #0
 8001d00:	e017      	b.n	8001d32 <I2C_WaitOnFlagUntilTimeout+0x4e>
 8001d02:	1c6b      	adds	r3, r5, #1
 8001d04:	d0f4      	beq.n	8001cf0 <I2C_WaitOnFlagUntilTimeout+0xc>
 8001d06:	f7ff fdbd 	bl	8001884 <HAL_GetTick>
 8001d0a:	9b06      	ldr	r3, [sp, #24]
 8001d0c:	1ac0      	subs	r0, r0, r3
 8001d0e:	42a8      	cmp	r0, r5
 8001d10:	d801      	bhi.n	8001d16 <I2C_WaitOnFlagUntilTimeout+0x32>
 8001d12:	2d00      	cmp	r5, #0
 8001d14:	d1eb      	bne.n	8001cee <I2C_WaitOnFlagUntilTimeout+0xa>
 8001d16:	2220      	movs	r2, #32
 8001d18:	6c63      	ldr	r3, [r4, #68]	; 0x44
 8001d1a:	2001      	movs	r0, #1
 8001d1c:	4313      	orrs	r3, r2
 8001d1e:	6463      	str	r3, [r4, #68]	; 0x44
 8001d20:	0023      	movs	r3, r4
 8001d22:	3341      	adds	r3, #65	; 0x41
 8001d24:	701a      	strb	r2, [r3, #0]
 8001d26:	0022      	movs	r2, r4
 8001d28:	2300      	movs	r3, #0
 8001d2a:	3242      	adds	r2, #66	; 0x42
 8001d2c:	3440      	adds	r4, #64	; 0x40
 8001d2e:	7013      	strb	r3, [r2, #0]
 8001d30:	7023      	strb	r3, [r4, #0]
 8001d32:	bdf8      	pop	{r3, r4, r5, r6, r7, pc}

08001d34 <I2C_WaitOnTXISFlagUntilTimeout>:
 8001d34:	b5f8      	push	{r3, r4, r5, r6, r7, lr}
 8001d36:	0004      	movs	r4, r0
 8001d38:	000d      	movs	r5, r1
 8001d3a:	0016      	movs	r6, r2
 8001d3c:	2702      	movs	r7, #2
 8001d3e:	6823      	ldr	r3, [r4, #0]
 8001d40:	699b      	ldr	r3, [r3, #24]
 8001d42:	423b      	tst	r3, r7
 8001d44:	d001      	beq.n	8001d4a <I2C_WaitOnTXISFlagUntilTimeout+0x16>
 8001d46:	2000      	movs	r0, #0
 8001d48:	bdf8      	pop	{r3, r4, r5, r6, r7, pc}
 8001d4a:	0032      	movs	r2, r6
 8001d4c:	0029      	movs	r1, r5
 8001d4e:	0020      	movs	r0, r4
 8001d50:	f7ff ff22 	bl	8001b98 <I2C_IsAcknowledgeFailed>
 8001d54:	2800      	cmp	r0, #0
 8001d56:	d115      	bne.n	8001d84 <I2C_WaitOnTXISFlagUntilTimeout+0x50>
 8001d58:	1c6b      	adds	r3, r5, #1
 8001d5a:	d0f0      	beq.n	8001d3e <I2C_WaitOnTXISFlagUntilTimeout+0xa>
 8001d5c:	f7ff fd92 	bl	8001884 <HAL_GetTick>
 8001d60:	1b80      	subs	r0, r0, r6
 8001d62:	42a8      	cmp	r0, r5
 8001d64:	d801      	bhi.n	8001d6a <I2C_WaitOnTXISFlagUntilTimeout+0x36>
 8001d66:	2d00      	cmp	r5, #0
 8001d68:	d1e9      	bne.n	8001d3e <I2C_WaitOnTXISFlagUntilTimeout+0xa>
 8001d6a:	2220      	movs	r2, #32
 8001d6c:	6c63      	ldr	r3, [r4, #68]	; 0x44
 8001d6e:	4313      	orrs	r3, r2
 8001d70:	6463      	str	r3, [r4, #68]	; 0x44
 8001d72:	0023      	movs	r3, r4
 8001d74:	3341      	adds	r3, #65	; 0x41
 8001d76:	701a      	strb	r2, [r3, #0]
 8001d78:	0022      	movs	r2, r4
 8001d7a:	2300      	movs	r3, #0
 8001d7c:	3242      	adds	r2, #66	; 0x42
 8001d7e:	3440      	adds	r4, #64	; 0x40
 8001d80:	7013      	strb	r3, [r2, #0]
 8001d82:	7023      	strb	r3, [r4, #0]
 8001d84:	2001      	movs	r0, #1
 8001d86:	e7df      	b.n	8001d48 <I2C_WaitOnTXISFlagUntilTimeout+0x14>

08001d88 <I2C_RequestMemoryWrite>:
 8001d88:	b5f7      	push	{r0, r1, r2, r4, r5, r6, r7, lr}
 8001d8a:	0014      	movs	r4, r2
 8001d8c:	001e      	movs	r6, r3
 8001d8e:	b2da      	uxtb	r2, r3
 8001d90:	4b16      	ldr	r3, [pc, #88]	; (8001dec <I2C_RequestMemoryWrite+0x64>)
 8001d92:	0005      	movs	r5, r0
 8001d94:	9300      	str	r3, [sp, #0]
 8001d96:	2380      	movs	r3, #128	; 0x80
 8001d98:	9f08      	ldr	r7, [sp, #32]
 8001d9a:	045b      	lsls	r3, r3, #17
 8001d9c:	f7ff fee8 	bl	8001b70 <I2C_TransferConfig>
 8001da0:	0039      	movs	r1, r7
 8001da2:	0028      	movs	r0, r5
 8001da4:	9a09      	ldr	r2, [sp, #36]	; 0x24
 8001da6:	f7ff ffc5 	bl	8001d34 <I2C_WaitOnTXISFlagUntilTimeout>
 8001daa:	2800      	cmp	r0, #0
 8001dac:	d001      	beq.n	8001db2 <I2C_RequestMemoryWrite+0x2a>
 8001dae:	2001      	movs	r0, #1
 8001db0:	bdfe      	pop	{r1, r2, r3, r4, r5, r6, r7, pc}
 8001db2:	682b      	ldr	r3, [r5, #0]
 8001db4:	2e01      	cmp	r6, #1
 8001db6:	d10d      	bne.n	8001dd4 <I2C_RequestMemoryWrite+0x4c>
 8001db8:	b2e4      	uxtb	r4, r4
 8001dba:	629c      	str	r4, [r3, #40]	; 0x28
 8001dbc:	9b09      	ldr	r3, [sp, #36]	; 0x24
 8001dbe:	2200      	movs	r2, #0
 8001dc0:	9300      	str	r3, [sp, #0]
 8001dc2:	2180      	movs	r1, #128	; 0x80
 8001dc4:	003b      	movs	r3, r7
 8001dc6:	0028      	movs	r0, r5
 8001dc8:	f7ff ff8c 	bl	8001ce4 <I2C_WaitOnFlagUntilTimeout>
 8001dcc:	1e43      	subs	r3, r0, #1
 8001dce:	4198      	sbcs	r0, r3
 8001dd0:	b2c0      	uxtb	r0, r0
 8001dd2:	e7ed      	b.n	8001db0 <I2C_RequestMemoryWrite+0x28>
 8001dd4:	0a22      	lsrs	r2, r4, #8
 8001dd6:	629a      	str	r2, [r3, #40]	; 0x28
 8001dd8:	0039      	movs	r1, r7
 8001dda:	0028      	movs	r0, r5
 8001ddc:	9a09      	ldr	r2, [sp, #36]	; 0x24
 8001dde:	f7ff ffa9 	bl	8001d34 <I2C_WaitOnTXISFlagUntilTimeout>
 8001de2:	2800      	cmp	r0, #0
 8001de4:	d1e3      	bne.n	8001dae <I2C_RequestMemoryWrite+0x26>
 8001de6:	682b      	ldr	r3, [r5, #0]
 8001de8:	e7e6      	b.n	8001db8 <I2C_RequestMemoryWrite+0x30>
 8001dea:	46c0      	nop			; (mov r8, r8)
 8001dec:	80002000 	.word	0x80002000

08001df0 <HAL_I2C_Init>:
 8001df0:	b570      	push	{r4, r5, r6, lr}
 8001df2:	0004      	movs	r4, r0
 8001df4:	2001      	movs	r0, #1
 8001df6:	2c00      	cmp	r4, #0
 8001df8:	d03f      	beq.n	8001e7a <HAL_I2C_Init+0x8a>
 8001dfa:	0025      	movs	r5, r4
 8001dfc:	3541      	adds	r5, #65	; 0x41
 8001dfe:	782b      	ldrb	r3, [r5, #0]
 8001e00:	b2da      	uxtb	r2, r3
 8001e02:	2b00      	cmp	r3, #0
 8001e04:	d105      	bne.n	8001e12 <HAL_I2C_Init+0x22>
 8001e06:	0023      	movs	r3, r4
 8001e08:	3340      	adds	r3, #64	; 0x40
 8001e0a:	0020      	movs	r0, r4
 8001e0c:	701a      	strb	r2, [r3, #0]
 8001e0e:	f7ff f92b 	bl	8001068 <HAL_I2C_MspInit>
 8001e12:	2324      	movs	r3, #36	; 0x24
 8001e14:	2101      	movs	r1, #1
 8001e16:	702b      	strb	r3, [r5, #0]
 8001e18:	6823      	ldr	r3, [r4, #0]
 8001e1a:	68e0      	ldr	r0, [r4, #12]
 8001e1c:	681a      	ldr	r2, [r3, #0]
 8001e1e:	68a6      	ldr	r6, [r4, #8]
 8001e20:	438a      	bics	r2, r1
 8001e22:	601a      	str	r2, [r3, #0]
 8001e24:	6861      	ldr	r1, [r4, #4]
 8001e26:	4a1a      	ldr	r2, [pc, #104]	; (8001e90 <HAL_I2C_Init+0xa0>)
 8001e28:	400a      	ands	r2, r1
 8001e2a:	611a      	str	r2, [r3, #16]
 8001e2c:	6899      	ldr	r1, [r3, #8]
 8001e2e:	4a19      	ldr	r2, [pc, #100]	; (8001e94 <HAL_I2C_Init+0xa4>)
 8001e30:	4011      	ands	r1, r2
 8001e32:	6099      	str	r1, [r3, #8]
 8001e34:	2801      	cmp	r0, #1
 8001e36:	d121      	bne.n	8001e7c <HAL_I2C_Init+0x8c>
 8001e38:	2180      	movs	r1, #128	; 0x80
 8001e3a:	0209      	lsls	r1, r1, #8
 8001e3c:	4331      	orrs	r1, r6
 8001e3e:	6099      	str	r1, [r3, #8]
 8001e40:	6858      	ldr	r0, [r3, #4]
 8001e42:	4915      	ldr	r1, [pc, #84]	; (8001e98 <HAL_I2C_Init+0xa8>)
 8001e44:	4301      	orrs	r1, r0
 8001e46:	6059      	str	r1, [r3, #4]
 8001e48:	68d9      	ldr	r1, [r3, #12]
 8001e4a:	2000      	movs	r0, #0
 8001e4c:	400a      	ands	r2, r1
 8001e4e:	60da      	str	r2, [r3, #12]
 8001e50:	6961      	ldr	r1, [r4, #20]
 8001e52:	6922      	ldr	r2, [r4, #16]
 8001e54:	430a      	orrs	r2, r1
 8001e56:	69a1      	ldr	r1, [r4, #24]
 8001e58:	0209      	lsls	r1, r1, #8
 8001e5a:	430a      	orrs	r2, r1
 8001e5c:	60da      	str	r2, [r3, #12]
 8001e5e:	6a21      	ldr	r1, [r4, #32]
 8001e60:	69e2      	ldr	r2, [r4, #28]
 8001e62:	430a      	orrs	r2, r1
 8001e64:	601a      	str	r2, [r3, #0]
 8001e66:	2201      	movs	r2, #1
 8001e68:	6819      	ldr	r1, [r3, #0]
 8001e6a:	430a      	orrs	r2, r1
 8001e6c:	601a      	str	r2, [r3, #0]
 8001e6e:	2320      	movs	r3, #32
 8001e70:	6460      	str	r0, [r4, #68]	; 0x44
 8001e72:	702b      	strb	r3, [r5, #0]
 8001e74:	6320      	str	r0, [r4, #48]	; 0x30
 8001e76:	3442      	adds	r4, #66	; 0x42
 8001e78:	7020      	strb	r0, [r4, #0]
 8001e7a:	bd70      	pop	{r4, r5, r6, pc}
 8001e7c:	2184      	movs	r1, #132	; 0x84
 8001e7e:	0209      	lsls	r1, r1, #8
 8001e80:	4331      	orrs	r1, r6
 8001e82:	6099      	str	r1, [r3, #8]
 8001e84:	2802      	cmp	r0, #2
 8001e86:	d1db      	bne.n	8001e40 <HAL_I2C_Init+0x50>
 8001e88:	2180      	movs	r1, #128	; 0x80
 8001e8a:	0109      	lsls	r1, r1, #4
 8001e8c:	6059      	str	r1, [r3, #4]
 8001e8e:	e7d7      	b.n	8001e40 <HAL_I2C_Init+0x50>
 8001e90:	f0ffffff 	.word	0xf0ffffff
 8001e94:	ffff7fff 	.word	0xffff7fff
 8001e98:	02008000 	.word	0x02008000

08001e9c <HAL_I2C_Master_Transmit>:
 8001e9c:	b5f0      	push	{r4, r5, r6, r7, lr}
 8001e9e:	b087      	sub	sp, #28
 8001ea0:	9305      	str	r3, [sp, #20]
 8001ea2:	0003      	movs	r3, r0
 8001ea4:	3341      	adds	r3, #65	; 0x41
 8001ea6:	9204      	str	r2, [sp, #16]
 8001ea8:	9303      	str	r3, [sp, #12]
 8001eaa:	781b      	ldrb	r3, [r3, #0]
 8001eac:	0004      	movs	r4, r0
 8001eae:	000f      	movs	r7, r1
 8001eb0:	2002      	movs	r0, #2
 8001eb2:	2b20      	cmp	r3, #32
 8001eb4:	d114      	bne.n	8001ee0 <HAL_I2C_Master_Transmit+0x44>
 8001eb6:	0023      	movs	r3, r4
 8001eb8:	3340      	adds	r3, #64	; 0x40
 8001eba:	781a      	ldrb	r2, [r3, #0]
 8001ebc:	2a01      	cmp	r2, #1
 8001ebe:	d00f      	beq.n	8001ee0 <HAL_I2C_Master_Transmit+0x44>
 8001ec0:	2601      	movs	r6, #1
 8001ec2:	701e      	strb	r6, [r3, #0]
 8001ec4:	f7ff fcde 	bl	8001884 <HAL_GetTick>
 8001ec8:	2180      	movs	r1, #128	; 0x80
 8001eca:	0005      	movs	r5, r0
 8001ecc:	9000      	str	r0, [sp, #0]
 8001ece:	2319      	movs	r3, #25
 8001ed0:	0032      	movs	r2, r6
 8001ed2:	0020      	movs	r0, r4
 8001ed4:	0209      	lsls	r1, r1, #8
 8001ed6:	f7ff ff05 	bl	8001ce4 <I2C_WaitOnFlagUntilTimeout>
 8001eda:	2800      	cmp	r0, #0
 8001edc:	d002      	beq.n	8001ee4 <HAL_I2C_Master_Transmit+0x48>
 8001ede:	2001      	movs	r0, #1
 8001ee0:	b007      	add	sp, #28
 8001ee2:	bdf0      	pop	{r4, r5, r6, r7, pc}
 8001ee4:	2321      	movs	r3, #33	; 0x21
 8001ee6:	0026      	movs	r6, r4
 8001ee8:	9a03      	ldr	r2, [sp, #12]
 8001eea:	3642      	adds	r6, #66	; 0x42
 8001eec:	7013      	strb	r3, [r2, #0]
 8001eee:	3b11      	subs	r3, #17
 8001ef0:	7033      	strb	r3, [r6, #0]
 8001ef2:	9b04      	ldr	r3, [sp, #16]
 8001ef4:	6460      	str	r0, [r4, #68]	; 0x44
 8001ef6:	6263      	str	r3, [r4, #36]	; 0x24
 8001ef8:	9b05      	ldr	r3, [sp, #20]
 8001efa:	6360      	str	r0, [r4, #52]	; 0x34
 8001efc:	8563      	strh	r3, [r4, #42]	; 0x2a
 8001efe:	8d62      	ldrh	r2, [r4, #42]	; 0x2a
 8001f00:	4b2d      	ldr	r3, [pc, #180]	; (8001fb8 <HAL_I2C_Master_Transmit+0x11c>)
 8001f02:	2aff      	cmp	r2, #255	; 0xff
 8001f04:	d920      	bls.n	8001f48 <HAL_I2C_Master_Transmit+0xac>
 8001f06:	22ff      	movs	r2, #255	; 0xff
 8001f08:	8522      	strh	r2, [r4, #40]	; 0x28
 8001f0a:	9300      	str	r3, [sp, #0]
 8001f0c:	2380      	movs	r3, #128	; 0x80
 8001f0e:	045b      	lsls	r3, r3, #17
 8001f10:	0039      	movs	r1, r7
 8001f12:	0020      	movs	r0, r4
 8001f14:	f7ff fe2c 	bl	8001b70 <I2C_TransferConfig>
 8001f18:	8d63      	ldrh	r3, [r4, #42]	; 0x2a
 8001f1a:	002a      	movs	r2, r5
 8001f1c:	0020      	movs	r0, r4
 8001f1e:	990c      	ldr	r1, [sp, #48]	; 0x30
 8001f20:	2b00      	cmp	r3, #0
 8001f22:	d119      	bne.n	8001f58 <HAL_I2C_Master_Transmit+0xbc>
 8001f24:	f7ff feb6 	bl	8001c94 <I2C_WaitOnSTOPFlagUntilTimeout>
 8001f28:	2800      	cmp	r0, #0
 8001f2a:	d1d8      	bne.n	8001ede <HAL_I2C_Master_Transmit+0x42>
 8001f2c:	2120      	movs	r1, #32
 8001f2e:	6823      	ldr	r3, [r4, #0]
 8001f30:	4d22      	ldr	r5, [pc, #136]	; (8001fbc <HAL_I2C_Master_Transmit+0x120>)
 8001f32:	61d9      	str	r1, [r3, #28]
 8001f34:	685a      	ldr	r2, [r3, #4]
 8001f36:	402a      	ands	r2, r5
 8001f38:	605a      	str	r2, [r3, #4]
 8001f3a:	0023      	movs	r3, r4
 8001f3c:	3440      	adds	r4, #64	; 0x40
 8001f3e:	3341      	adds	r3, #65	; 0x41
 8001f40:	7019      	strb	r1, [r3, #0]
 8001f42:	7030      	strb	r0, [r6, #0]
 8001f44:	7020      	strb	r0, [r4, #0]
 8001f46:	e7cb      	b.n	8001ee0 <HAL_I2C_Master_Transmit+0x44>
 8001f48:	8d62      	ldrh	r2, [r4, #42]	; 0x2a
 8001f4a:	b292      	uxth	r2, r2
 8001f4c:	8522      	strh	r2, [r4, #40]	; 0x28
 8001f4e:	b2d2      	uxtb	r2, r2
 8001f50:	9300      	str	r3, [sp, #0]
 8001f52:	2380      	movs	r3, #128	; 0x80
 8001f54:	049b      	lsls	r3, r3, #18
 8001f56:	e7db      	b.n	8001f10 <HAL_I2C_Master_Transmit+0x74>
 8001f58:	f7ff feec 	bl	8001d34 <I2C_WaitOnTXISFlagUntilTimeout>
 8001f5c:	2800      	cmp	r0, #0
 8001f5e:	d1be      	bne.n	8001ede <HAL_I2C_Master_Transmit+0x42>
 8001f60:	6a63      	ldr	r3, [r4, #36]	; 0x24
 8001f62:	6822      	ldr	r2, [r4, #0]
 8001f64:	7819      	ldrb	r1, [r3, #0]
 8001f66:	3301      	adds	r3, #1
 8001f68:	6291      	str	r1, [r2, #40]	; 0x28
 8001f6a:	6263      	str	r3, [r4, #36]	; 0x24
 8001f6c:	8d63      	ldrh	r3, [r4, #42]	; 0x2a
 8001f6e:	8d22      	ldrh	r2, [r4, #40]	; 0x28
 8001f70:	3b01      	subs	r3, #1
 8001f72:	b29b      	uxth	r3, r3
 8001f74:	8563      	strh	r3, [r4, #42]	; 0x2a
 8001f76:	3a01      	subs	r2, #1
 8001f78:	8d63      	ldrh	r3, [r4, #42]	; 0x2a
 8001f7a:	b292      	uxth	r2, r2
 8001f7c:	8522      	strh	r2, [r4, #40]	; 0x28
 8001f7e:	2b00      	cmp	r3, #0
 8001f80:	d0ca      	beq.n	8001f18 <HAL_I2C_Master_Transmit+0x7c>
 8001f82:	2a00      	cmp	r2, #0
 8001f84:	d1c8      	bne.n	8001f18 <HAL_I2C_Master_Transmit+0x7c>
 8001f86:	2180      	movs	r1, #128	; 0x80
 8001f88:	0020      	movs	r0, r4
 8001f8a:	9b0c      	ldr	r3, [sp, #48]	; 0x30
 8001f8c:	9500      	str	r5, [sp, #0]
 8001f8e:	f7ff fea9 	bl	8001ce4 <I2C_WaitOnFlagUntilTimeout>
 8001f92:	2800      	cmp	r0, #0
 8001f94:	d1a3      	bne.n	8001ede <HAL_I2C_Master_Transmit+0x42>
 8001f96:	8d63      	ldrh	r3, [r4, #42]	; 0x2a
 8001f98:	2bff      	cmp	r3, #255	; 0xff
 8001f9a:	d906      	bls.n	8001faa <HAL_I2C_Master_Transmit+0x10e>
 8001f9c:	23ff      	movs	r3, #255	; 0xff
 8001f9e:	8523      	strh	r3, [r4, #40]	; 0x28
 8001fa0:	2380      	movs	r3, #128	; 0x80
 8001fa2:	22ff      	movs	r2, #255	; 0xff
 8001fa4:	9000      	str	r0, [sp, #0]
 8001fa6:	045b      	lsls	r3, r3, #17
 8001fa8:	e7b2      	b.n	8001f10 <HAL_I2C_Master_Transmit+0x74>
 8001faa:	8d62      	ldrh	r2, [r4, #42]	; 0x2a
 8001fac:	b292      	uxth	r2, r2
 8001fae:	8522      	strh	r2, [r4, #40]	; 0x28
 8001fb0:	b2d2      	uxtb	r2, r2
 8001fb2:	9000      	str	r0, [sp, #0]
 8001fb4:	e7cd      	b.n	8001f52 <HAL_I2C_Master_Transmit+0xb6>
 8001fb6:	46c0      	nop			; (mov r8, r8)
 8001fb8:	80002000 	.word	0x80002000
 8001fbc:	fe00e800 	.word	0xfe00e800

08001fc0 <HAL_I2C_Master_Receive>:
 8001fc0:	b5f0      	push	{r4, r5, r6, r7, lr}
 8001fc2:	b087      	sub	sp, #28
 8001fc4:	9305      	str	r3, [sp, #20]
 8001fc6:	0003      	movs	r3, r0
 8001fc8:	3341      	adds	r3, #65	; 0x41
 8001fca:	9204      	str	r2, [sp, #16]
 8001fcc:	9303      	str	r3, [sp, #12]
 8001fce:	781b      	ldrb	r3, [r3, #0]
 8001fd0:	0004      	movs	r4, r0
 8001fd2:	000f      	movs	r7, r1
 8001fd4:	2002      	movs	r0, #2
 8001fd6:	2b20      	cmp	r3, #32
 8001fd8:	d114      	bne.n	8002004 <HAL_I2C_Master_Receive+0x44>
 8001fda:	0023      	movs	r3, r4
 8001fdc:	3340      	adds	r3, #64	; 0x40
 8001fde:	781a      	ldrb	r2, [r3, #0]
 8001fe0:	2a01      	cmp	r2, #1
 8001fe2:	d00f      	beq.n	8002004 <HAL_I2C_Master_Receive+0x44>
 8001fe4:	2601      	movs	r6, #1
 8001fe6:	701e      	strb	r6, [r3, #0]
 8001fe8:	f7ff fc4c 	bl	8001884 <HAL_GetTick>
 8001fec:	2180      	movs	r1, #128	; 0x80
 8001fee:	0005      	movs	r5, r0
 8001ff0:	9000      	str	r0, [sp, #0]
 8001ff2:	2319      	movs	r3, #25
 8001ff4:	0032      	movs	r2, r6
 8001ff6:	0020      	movs	r0, r4
 8001ff8:	0209      	lsls	r1, r1, #8
 8001ffa:	f7ff fe73 	bl	8001ce4 <I2C_WaitOnFlagUntilTimeout>
 8001ffe:	2800      	cmp	r0, #0
 8002000:	d002      	beq.n	8002008 <HAL_I2C_Master_Receive+0x48>
 8002002:	2001      	movs	r0, #1
 8002004:	b007      	add	sp, #28
 8002006:	bdf0      	pop	{r4, r5, r6, r7, pc}
 8002008:	2322      	movs	r3, #34	; 0x22
 800200a:	0026      	movs	r6, r4
 800200c:	9a03      	ldr	r2, [sp, #12]
 800200e:	3642      	adds	r6, #66	; 0x42
 8002010:	7013      	strb	r3, [r2, #0]
 8002012:	3b12      	subs	r3, #18
 8002014:	7033      	strb	r3, [r6, #0]
 8002016:	9b04      	ldr	r3, [sp, #16]
 8002018:	6460      	str	r0, [r4, #68]	; 0x44
 800201a:	6263      	str	r3, [r4, #36]	; 0x24
 800201c:	9b05      	ldr	r3, [sp, #20]
 800201e:	6360      	str	r0, [r4, #52]	; 0x34
 8002020:	8563      	strh	r3, [r4, #42]	; 0x2a
 8002022:	8d62      	ldrh	r2, [r4, #42]	; 0x2a
 8002024:	4b2d      	ldr	r3, [pc, #180]	; (80020dc <HAL_I2C_Master_Receive+0x11c>)
 8002026:	2aff      	cmp	r2, #255	; 0xff
 8002028:	d920      	bls.n	800206c <HAL_I2C_Master_Receive+0xac>
 800202a:	22ff      	movs	r2, #255	; 0xff
 800202c:	8522      	strh	r2, [r4, #40]	; 0x28
 800202e:	9300      	str	r3, [sp, #0]
 8002030:	2380      	movs	r3, #128	; 0x80
 8002032:	045b      	lsls	r3, r3, #17
 8002034:	0039      	movs	r1, r7
 8002036:	0020      	movs	r0, r4
 8002038:	f7ff fd9a 	bl	8001b70 <I2C_TransferConfig>
 800203c:	8d63      	ldrh	r3, [r4, #42]	; 0x2a
 800203e:	002a      	movs	r2, r5
 8002040:	0020      	movs	r0, r4
 8002042:	990c      	ldr	r1, [sp, #48]	; 0x30
 8002044:	2b00      	cmp	r3, #0
 8002046:	d119      	bne.n	800207c <HAL_I2C_Master_Receive+0xbc>
 8002048:	f7ff fe24 	bl	8001c94 <I2C_WaitOnSTOPFlagUntilTimeout>
 800204c:	2800      	cmp	r0, #0
 800204e:	d1d8      	bne.n	8002002 <HAL_I2C_Master_Receive+0x42>
 8002050:	2120      	movs	r1, #32
 8002052:	6823      	ldr	r3, [r4, #0]
 8002054:	4d22      	ldr	r5, [pc, #136]	; (80020e0 <HAL_I2C_Master_Receive+0x120>)
 8002056:	61d9      	str	r1, [r3, #28]
 8002058:	685a      	ldr	r2, [r3, #4]
 800205a:	402a      	ands	r2, r5
 800205c:	605a      	str	r2, [r3, #4]
 800205e:	0023      	movs	r3, r4
 8002060:	3440      	adds	r4, #64	; 0x40
 8002062:	3341      	adds	r3, #65	; 0x41
 8002064:	7019      	strb	r1, [r3, #0]
 8002066:	7030      	strb	r0, [r6, #0]
 8002068:	7020      	strb	r0, [r4, #0]
 800206a:	e7cb      	b.n	8002004 <HAL_I2C_Master_Receive+0x44>
 800206c:	8d62      	ldrh	r2, [r4, #42]	; 0x2a
 800206e:	b292      	uxth	r2, r2
 8002070:	8522      	strh	r2, [r4, #40]	; 0x28
 8002072:	b2d2      	uxtb	r2, r2
 8002074:	9300      	str	r3, [sp, #0]
 8002076:	2380      	movs	r3, #128	; 0x80
 8002078:	049b      	lsls	r3, r3, #18
 800207a:	e7db      	b.n	8002034 <HAL_I2C_Master_Receive+0x74>
 800207c:	f7ff fdca 	bl	8001c14 <I2C_WaitOnRXNEFlagUntilTimeout>
 8002080:	2800      	cmp	r0, #0
 8002082:	d1be      	bne.n	8002002 <HAL_I2C_Master_Receive+0x42>
 8002084:	6823      	ldr	r3, [r4, #0]
 8002086:	6a62      	ldr	r2, [r4, #36]	; 0x24
 8002088:	6a5b      	ldr	r3, [r3, #36]	; 0x24
 800208a:	7013      	strb	r3, [r2, #0]
 800208c:	6a63      	ldr	r3, [r4, #36]	; 0x24
 800208e:	8d22      	ldrh	r2, [r4, #40]	; 0x28
 8002090:	3301      	adds	r3, #1
 8002092:	6263      	str	r3, [r4, #36]	; 0x24
 8002094:	8d63      	ldrh	r3, [r4, #42]	; 0x2a
 8002096:	3a01      	subs	r2, #1
 8002098:	3b01      	subs	r3, #1
 800209a:	b29b      	uxth	r3, r3
 800209c:	8563      	strh	r3, [r4, #42]	; 0x2a
 800209e:	8d63      	ldrh	r3, [r4, #42]	; 0x2a
 80020a0:	b292      	uxth	r2, r2
 80020a2:	8522      	strh	r2, [r4, #40]	; 0x28
 80020a4:	2b00      	cmp	r3, #0
 80020a6:	d0c9      	beq.n	800203c <HAL_I2C_Master_Receive+0x7c>
 80020a8:	2a00      	cmp	r2, #0
 80020aa:	d1c7      	bne.n	800203c <HAL_I2C_Master_Receive+0x7c>
 80020ac:	2180      	movs	r1, #128	; 0x80
 80020ae:	0020      	movs	r0, r4
 80020b0:	9b0c      	ldr	r3, [sp, #48]	; 0x30
 80020b2:	9500      	str	r5, [sp, #0]
 80020b4:	f7ff fe16 	bl	8001ce4 <I2C_WaitOnFlagUntilTimeout>
 80020b8:	2800      	cmp	r0, #0
 80020ba:	d1a2      	bne.n	8002002 <HAL_I2C_Master_Receive+0x42>
 80020bc:	8d63      	ldrh	r3, [r4, #42]	; 0x2a
 80020be:	2bff      	cmp	r3, #255	; 0xff
 80020c0:	d906      	bls.n	80020d0 <HAL_I2C_Master_Receive+0x110>
 80020c2:	23ff      	movs	r3, #255	; 0xff
 80020c4:	8523      	strh	r3, [r4, #40]	; 0x28
 80020c6:	2380      	movs	r3, #128	; 0x80
 80020c8:	22ff      	movs	r2, #255	; 0xff
 80020ca:	9000      	str	r0, [sp, #0]
 80020cc:	045b      	lsls	r3, r3, #17
 80020ce:	e7b1      	b.n	8002034 <HAL_I2C_Master_Receive+0x74>
 80020d0:	8d62      	ldrh	r2, [r4, #42]	; 0x2a
 80020d2:	b292      	uxth	r2, r2
 80020d4:	8522      	strh	r2, [r4, #40]	; 0x28
 80020d6:	b2d2      	uxtb	r2, r2
 80020d8:	9000      	str	r0, [sp, #0]
 80020da:	e7cc      	b.n	8002076 <HAL_I2C_Master_Receive+0xb6>
 80020dc:	80002400 	.word	0x80002400
 80020e0:	fe00e800 	.word	0xfe00e800

080020e4 <HAL_I2C_Mem_Write>:
 80020e4:	b5f0      	push	{r4, r5, r6, r7, lr}
 80020e6:	b089      	sub	sp, #36	; 0x24
 80020e8:	9307      	str	r3, [sp, #28]
 80020ea:	ab0e      	add	r3, sp, #56	; 0x38
 80020ec:	9206      	str	r2, [sp, #24]
 80020ee:	cb04      	ldmia	r3!, {r2}
 80020f0:	0004      	movs	r4, r0
 80020f2:	881b      	ldrh	r3, [r3, #0]
 80020f4:	9203      	str	r2, [sp, #12]
 80020f6:	9304      	str	r3, [sp, #16]
 80020f8:	0003      	movs	r3, r0
 80020fa:	3341      	adds	r3, #65	; 0x41
 80020fc:	9305      	str	r3, [sp, #20]
 80020fe:	781b      	ldrb	r3, [r3, #0]
 8002100:	000f      	movs	r7, r1
 8002102:	2002      	movs	r0, #2
 8002104:	2b20      	cmp	r3, #32
 8002106:	d108      	bne.n	800211a <HAL_I2C_Mem_Write+0x36>
 8002108:	2a00      	cmp	r2, #0
 800210a:	d002      	beq.n	8002112 <HAL_I2C_Mem_Write+0x2e>
 800210c:	9b04      	ldr	r3, [sp, #16]
 800210e:	2b00      	cmp	r3, #0
 8002110:	d105      	bne.n	800211e <HAL_I2C_Mem_Write+0x3a>
 8002112:	2380      	movs	r3, #128	; 0x80
 8002114:	009b      	lsls	r3, r3, #2
 8002116:	6463      	str	r3, [r4, #68]	; 0x44
 8002118:	2001      	movs	r0, #1
 800211a:	b009      	add	sp, #36	; 0x24
 800211c:	bdf0      	pop	{r4, r5, r6, r7, pc}
 800211e:	0023      	movs	r3, r4
 8002120:	3340      	adds	r3, #64	; 0x40
 8002122:	9302      	str	r3, [sp, #8]
 8002124:	781b      	ldrb	r3, [r3, #0]
 8002126:	2002      	movs	r0, #2
 8002128:	2b01      	cmp	r3, #1
 800212a:	d0f6      	beq.n	800211a <HAL_I2C_Mem_Write+0x36>
 800212c:	2201      	movs	r2, #1
 800212e:	9b02      	ldr	r3, [sp, #8]
 8002130:	701a      	strb	r2, [r3, #0]
 8002132:	f7ff fba7 	bl	8001884 <HAL_GetTick>
 8002136:	2180      	movs	r1, #128	; 0x80
 8002138:	9000      	str	r0, [sp, #0]
 800213a:	0005      	movs	r5, r0
 800213c:	2319      	movs	r3, #25
 800213e:	2201      	movs	r2, #1
 8002140:	0020      	movs	r0, r4
 8002142:	0209      	lsls	r1, r1, #8
 8002144:	f7ff fdce 	bl	8001ce4 <I2C_WaitOnFlagUntilTimeout>
 8002148:	1e06      	subs	r6, r0, #0
 800214a:	d1e5      	bne.n	8002118 <HAL_I2C_Mem_Write+0x34>
 800214c:	2321      	movs	r3, #33	; 0x21
 800214e:	9a05      	ldr	r2, [sp, #20]
 8002150:	0039      	movs	r1, r7
 8002152:	7013      	strb	r3, [r2, #0]
 8002154:	0023      	movs	r3, r4
 8002156:	3342      	adds	r3, #66	; 0x42
 8002158:	9305      	str	r3, [sp, #20]
 800215a:	2340      	movs	r3, #64	; 0x40
 800215c:	9a05      	ldr	r2, [sp, #20]
 800215e:	7013      	strb	r3, [r2, #0]
 8002160:	9b03      	ldr	r3, [sp, #12]
 8002162:	6460      	str	r0, [r4, #68]	; 0x44
 8002164:	6263      	str	r3, [r4, #36]	; 0x24
 8002166:	9b04      	ldr	r3, [sp, #16]
 8002168:	6360      	str	r0, [r4, #52]	; 0x34
 800216a:	8563      	strh	r3, [r4, #42]	; 0x2a
 800216c:	9b10      	ldr	r3, [sp, #64]	; 0x40
 800216e:	0020      	movs	r0, r4
 8002170:	9300      	str	r3, [sp, #0]
 8002172:	9a06      	ldr	r2, [sp, #24]
 8002174:	9b07      	ldr	r3, [sp, #28]
 8002176:	9501      	str	r5, [sp, #4]
 8002178:	f7ff fe06 	bl	8001d88 <I2C_RequestMemoryWrite>
 800217c:	2800      	cmp	r0, #0
 800217e:	d002      	beq.n	8002186 <HAL_I2C_Mem_Write+0xa2>
 8002180:	9b02      	ldr	r3, [sp, #8]
 8002182:	701e      	strb	r6, [r3, #0]
 8002184:	e7c8      	b.n	8002118 <HAL_I2C_Mem_Write+0x34>
 8002186:	8d63      	ldrh	r3, [r4, #42]	; 0x2a
 8002188:	2bff      	cmp	r3, #255	; 0xff
 800218a:	d954      	bls.n	8002236 <HAL_I2C_Mem_Write+0x152>
 800218c:	22ff      	movs	r2, #255	; 0xff
 800218e:	2380      	movs	r3, #128	; 0x80
 8002190:	8522      	strh	r2, [r4, #40]	; 0x28
 8002192:	045b      	lsls	r3, r3, #17
 8002194:	9000      	str	r0, [sp, #0]
 8002196:	0039      	movs	r1, r7
 8002198:	0020      	movs	r0, r4
 800219a:	2680      	movs	r6, #128	; 0x80
 800219c:	f7ff fce8 	bl	8001b70 <I2C_TransferConfig>
 80021a0:	04b6      	lsls	r6, r6, #18
 80021a2:	002a      	movs	r2, r5
 80021a4:	0020      	movs	r0, r4
 80021a6:	9910      	ldr	r1, [sp, #64]	; 0x40
 80021a8:	f7ff fdc4 	bl	8001d34 <I2C_WaitOnTXISFlagUntilTimeout>
 80021ac:	2800      	cmp	r0, #0
 80021ae:	d1b3      	bne.n	8002118 <HAL_I2C_Mem_Write+0x34>
 80021b0:	6a63      	ldr	r3, [r4, #36]	; 0x24
 80021b2:	6822      	ldr	r2, [r4, #0]
 80021b4:	7819      	ldrb	r1, [r3, #0]
 80021b6:	3301      	adds	r3, #1
 80021b8:	6291      	str	r1, [r2, #40]	; 0x28
 80021ba:	6263      	str	r3, [r4, #36]	; 0x24
 80021bc:	8d63      	ldrh	r3, [r4, #42]	; 0x2a
 80021be:	8d22      	ldrh	r2, [r4, #40]	; 0x28
 80021c0:	3b01      	subs	r3, #1
 80021c2:	b29b      	uxth	r3, r3
 80021c4:	8563      	strh	r3, [r4, #42]	; 0x2a
 80021c6:	3a01      	subs	r2, #1
 80021c8:	8d63      	ldrh	r3, [r4, #42]	; 0x2a
 80021ca:	b292      	uxth	r2, r2
 80021cc:	8522      	strh	r2, [r4, #40]	; 0x28
 80021ce:	2b00      	cmp	r3, #0
 80021d0:	d017      	beq.n	8002202 <HAL_I2C_Mem_Write+0x11e>
 80021d2:	2a00      	cmp	r2, #0
 80021d4:	d115      	bne.n	8002202 <HAL_I2C_Mem_Write+0x11e>
 80021d6:	2180      	movs	r1, #128	; 0x80
 80021d8:	0020      	movs	r0, r4
 80021da:	9b10      	ldr	r3, [sp, #64]	; 0x40
 80021dc:	9500      	str	r5, [sp, #0]
 80021de:	f7ff fd81 	bl	8001ce4 <I2C_WaitOnFlagUntilTimeout>
 80021e2:	2800      	cmp	r0, #0
 80021e4:	d000      	beq.n	80021e8 <HAL_I2C_Mem_Write+0x104>
 80021e6:	e797      	b.n	8002118 <HAL_I2C_Mem_Write+0x34>
 80021e8:	8d63      	ldrh	r3, [r4, #42]	; 0x2a
 80021ea:	2bff      	cmp	r3, #255	; 0xff
 80021ec:	d92b      	bls.n	8002246 <HAL_I2C_Mem_Write+0x162>
 80021ee:	23ff      	movs	r3, #255	; 0xff
 80021f0:	8523      	strh	r3, [r4, #40]	; 0x28
 80021f2:	2380      	movs	r3, #128	; 0x80
 80021f4:	22ff      	movs	r2, #255	; 0xff
 80021f6:	9000      	str	r0, [sp, #0]
 80021f8:	045b      	lsls	r3, r3, #17
 80021fa:	0039      	movs	r1, r7
 80021fc:	0020      	movs	r0, r4
 80021fe:	f7ff fcb7 	bl	8001b70 <I2C_TransferConfig>
 8002202:	8d63      	ldrh	r3, [r4, #42]	; 0x2a
 8002204:	2b00      	cmp	r3, #0
 8002206:	d1cc      	bne.n	80021a2 <HAL_I2C_Mem_Write+0xbe>
 8002208:	002a      	movs	r2, r5
 800220a:	0020      	movs	r0, r4
 800220c:	9910      	ldr	r1, [sp, #64]	; 0x40
 800220e:	f7ff fd41 	bl	8001c94 <I2C_WaitOnSTOPFlagUntilTimeout>
 8002212:	2800      	cmp	r0, #0
 8002214:	d000      	beq.n	8002218 <HAL_I2C_Mem_Write+0x134>
 8002216:	e77f      	b.n	8002118 <HAL_I2C_Mem_Write+0x34>
 8002218:	2120      	movs	r1, #32
 800221a:	6823      	ldr	r3, [r4, #0]
 800221c:	4d0d      	ldr	r5, [pc, #52]	; (8002254 <HAL_I2C_Mem_Write+0x170>)
 800221e:	61d9      	str	r1, [r3, #28]
 8002220:	685a      	ldr	r2, [r3, #4]
 8002222:	402a      	ands	r2, r5
 8002224:	605a      	str	r2, [r3, #4]
 8002226:	0023      	movs	r3, r4
 8002228:	3341      	adds	r3, #65	; 0x41
 800222a:	7019      	strb	r1, [r3, #0]
 800222c:	9b05      	ldr	r3, [sp, #20]
 800222e:	3440      	adds	r4, #64	; 0x40
 8002230:	7018      	strb	r0, [r3, #0]
 8002232:	7020      	strb	r0, [r4, #0]
 8002234:	e771      	b.n	800211a <HAL_I2C_Mem_Write+0x36>
 8002236:	2380      	movs	r3, #128	; 0x80
 8002238:	8d62      	ldrh	r2, [r4, #42]	; 0x2a
 800223a:	049b      	lsls	r3, r3, #18
 800223c:	b292      	uxth	r2, r2
 800223e:	8522      	strh	r2, [r4, #40]	; 0x28
 8002240:	b2d2      	uxtb	r2, r2
 8002242:	9000      	str	r0, [sp, #0]
 8002244:	e7a7      	b.n	8002196 <HAL_I2C_Mem_Write+0xb2>
 8002246:	8d62      	ldrh	r2, [r4, #42]	; 0x2a
 8002248:	0033      	movs	r3, r6
 800224a:	b292      	uxth	r2, r2
 800224c:	8522      	strh	r2, [r4, #40]	; 0x28
 800224e:	b2d2      	uxtb	r2, r2
 8002250:	9000      	str	r0, [sp, #0]
 8002252:	e7d2      	b.n	80021fa <HAL_I2C_Mem_Write+0x116>
 8002254:	fe00e800 	.word	0xfe00e800

08002258 <HAL_I2CEx_ConfigAnalogFilter>:
 8002258:	b5f0      	push	{r4, r5, r6, r7, lr}
 800225a:	0004      	movs	r4, r0
 800225c:	3441      	adds	r4, #65	; 0x41
 800225e:	7822      	ldrb	r2, [r4, #0]
 8002260:	0003      	movs	r3, r0
 8002262:	000f      	movs	r7, r1
 8002264:	2002      	movs	r0, #2
 8002266:	b2d6      	uxtb	r6, r2
 8002268:	2a20      	cmp	r2, #32
 800226a:	d118      	bne.n	800229e <HAL_I2CEx_ConfigAnalogFilter+0x46>
 800226c:	001d      	movs	r5, r3
 800226e:	3540      	adds	r5, #64	; 0x40
 8002270:	782a      	ldrb	r2, [r5, #0]
 8002272:	2a01      	cmp	r2, #1
 8002274:	d013      	beq.n	800229e <HAL_I2CEx_ConfigAnalogFilter+0x46>
 8002276:	2224      	movs	r2, #36	; 0x24
 8002278:	7022      	strb	r2, [r4, #0]
 800227a:	681b      	ldr	r3, [r3, #0]
 800227c:	3a23      	subs	r2, #35	; 0x23
 800227e:	6819      	ldr	r1, [r3, #0]
 8002280:	4807      	ldr	r0, [pc, #28]	; (80022a0 <HAL_I2CEx_ConfigAnalogFilter+0x48>)
 8002282:	4391      	bics	r1, r2
 8002284:	6019      	str	r1, [r3, #0]
 8002286:	6819      	ldr	r1, [r3, #0]
 8002288:	4001      	ands	r1, r0
 800228a:	2000      	movs	r0, #0
 800228c:	6019      	str	r1, [r3, #0]
 800228e:	6819      	ldr	r1, [r3, #0]
 8002290:	4339      	orrs	r1, r7
 8002292:	6019      	str	r1, [r3, #0]
 8002294:	6819      	ldr	r1, [r3, #0]
 8002296:	430a      	orrs	r2, r1
 8002298:	601a      	str	r2, [r3, #0]
 800229a:	7026      	strb	r6, [r4, #0]
 800229c:	7028      	strb	r0, [r5, #0]
 800229e:	bdf0      	pop	{r4, r5, r6, r7, pc}
 80022a0:	ffffefff 	.word	0xffffefff

080022a4 <HAL_I2CEx_ConfigDigitalFilter>:
 80022a4:	0002      	movs	r2, r0
 80022a6:	b5f0      	push	{r4, r5, r6, r7, lr}
 80022a8:	3241      	adds	r2, #65	; 0x41
 80022aa:	7814      	ldrb	r4, [r2, #0]
 80022ac:	0003      	movs	r3, r0
 80022ae:	b2e5      	uxtb	r5, r4
 80022b0:	2002      	movs	r0, #2
 80022b2:	2c20      	cmp	r4, #32
 80022b4:	d117      	bne.n	80022e6 <HAL_I2CEx_ConfigDigitalFilter+0x42>
 80022b6:	001c      	movs	r4, r3
 80022b8:	3440      	adds	r4, #64	; 0x40
 80022ba:	7826      	ldrb	r6, [r4, #0]
 80022bc:	2e01      	cmp	r6, #1
 80022be:	d012      	beq.n	80022e6 <HAL_I2CEx_ConfigDigitalFilter+0x42>
 80022c0:	3022      	adds	r0, #34	; 0x22
 80022c2:	7010      	strb	r0, [r2, #0]
 80022c4:	681b      	ldr	r3, [r3, #0]
 80022c6:	3823      	subs	r0, #35	; 0x23
 80022c8:	681e      	ldr	r6, [r3, #0]
 80022ca:	4f07      	ldr	r7, [pc, #28]	; (80022e8 <HAL_I2CEx_ConfigDigitalFilter+0x44>)
 80022cc:	4386      	bics	r6, r0
 80022ce:	601e      	str	r6, [r3, #0]
 80022d0:	681e      	ldr	r6, [r3, #0]
 80022d2:	0209      	lsls	r1, r1, #8
 80022d4:	403e      	ands	r6, r7
 80022d6:	4331      	orrs	r1, r6
 80022d8:	6019      	str	r1, [r3, #0]
 80022da:	6819      	ldr	r1, [r3, #0]
 80022dc:	4308      	orrs	r0, r1
 80022de:	6018      	str	r0, [r3, #0]
 80022e0:	2000      	movs	r0, #0
 80022e2:	7015      	strb	r5, [r2, #0]
 80022e4:	7020      	strb	r0, [r4, #0]
 80022e6:	bdf0      	pop	{r4, r5, r6, r7, pc}
 80022e8:	fffff0ff 	.word	0xfffff0ff

080022ec <HAL_RCC_OscConfig>:
 80022ec:	b5f0      	push	{r4, r5, r6, r7, lr}
 80022ee:	0004      	movs	r4, r0
 80022f0:	b085      	sub	sp, #20
 80022f2:	2800      	cmp	r0, #0
 80022f4:	d045      	beq.n	8002382 <HAL_RCC_OscConfig+0x96>
 80022f6:	6803      	ldr	r3, [r0, #0]
 80022f8:	07db      	lsls	r3, r3, #31
 80022fa:	d42f      	bmi.n	800235c <HAL_RCC_OscConfig+0x70>
 80022fc:	6823      	ldr	r3, [r4, #0]
 80022fe:	079b      	lsls	r3, r3, #30
 8002300:	d500      	bpl.n	8002304 <HAL_RCC_OscConfig+0x18>
 8002302:	e081      	b.n	8002408 <HAL_RCC_OscConfig+0x11c>
 8002304:	6823      	ldr	r3, [r4, #0]
 8002306:	071b      	lsls	r3, r3, #28
 8002308:	d500      	bpl.n	800230c <HAL_RCC_OscConfig+0x20>
 800230a:	e0bc      	b.n	8002486 <HAL_RCC_OscConfig+0x19a>
 800230c:	6823      	ldr	r3, [r4, #0]
 800230e:	075b      	lsls	r3, r3, #29
 8002310:	d500      	bpl.n	8002314 <HAL_RCC_OscConfig+0x28>
 8002312:	e0df      	b.n	80024d4 <HAL_RCC_OscConfig+0x1e8>
 8002314:	6823      	ldr	r3, [r4, #0]
 8002316:	06db      	lsls	r3, r3, #27
 8002318:	d51a      	bpl.n	8002350 <HAL_RCC_OscConfig+0x64>
 800231a:	6962      	ldr	r2, [r4, #20]
 800231c:	2304      	movs	r3, #4
 800231e:	4db5      	ldr	r5, [pc, #724]	; (80025f4 <HAL_RCC_OscConfig+0x308>)
 8002320:	2a01      	cmp	r2, #1
 8002322:	d000      	beq.n	8002326 <HAL_RCC_OscConfig+0x3a>
 8002324:	e14a      	b.n	80025bc <HAL_RCC_OscConfig+0x2d0>
 8002326:	6b69      	ldr	r1, [r5, #52]	; 0x34
 8002328:	2702      	movs	r7, #2
 800232a:	430b      	orrs	r3, r1
 800232c:	636b      	str	r3, [r5, #52]	; 0x34
 800232e:	6b6b      	ldr	r3, [r5, #52]	; 0x34
 8002330:	431a      	orrs	r2, r3
 8002332:	636a      	str	r2, [r5, #52]	; 0x34
 8002334:	f7ff faa6 	bl	8001884 <HAL_GetTick>
 8002338:	0006      	movs	r6, r0
 800233a:	6b6b      	ldr	r3, [r5, #52]	; 0x34
 800233c:	423b      	tst	r3, r7
 800233e:	d100      	bne.n	8002342 <HAL_RCC_OscConfig+0x56>
 8002340:	e135      	b.n	80025ae <HAL_RCC_OscConfig+0x2c2>
 8002342:	21f8      	movs	r1, #248	; 0xf8
 8002344:	6b6a      	ldr	r2, [r5, #52]	; 0x34
 8002346:	69a3      	ldr	r3, [r4, #24]
 8002348:	438a      	bics	r2, r1
 800234a:	00db      	lsls	r3, r3, #3
 800234c:	4313      	orrs	r3, r2
 800234e:	636b      	str	r3, [r5, #52]	; 0x34
 8002350:	6a23      	ldr	r3, [r4, #32]
 8002352:	2b00      	cmp	r3, #0
 8002354:	d000      	beq.n	8002358 <HAL_RCC_OscConfig+0x6c>
 8002356:	e159      	b.n	800260c <HAL_RCC_OscConfig+0x320>
 8002358:	2000      	movs	r0, #0
 800235a:	e02a      	b.n	80023b2 <HAL_RCC_OscConfig+0xc6>
 800235c:	210c      	movs	r1, #12
 800235e:	4da5      	ldr	r5, [pc, #660]	; (80025f4 <HAL_RCC_OscConfig+0x308>)
 8002360:	686a      	ldr	r2, [r5, #4]
 8002362:	400a      	ands	r2, r1
 8002364:	2a04      	cmp	r2, #4
 8002366:	d006      	beq.n	8002376 <HAL_RCC_OscConfig+0x8a>
 8002368:	686b      	ldr	r3, [r5, #4]
 800236a:	400b      	ands	r3, r1
 800236c:	2b08      	cmp	r3, #8
 800236e:	d10a      	bne.n	8002386 <HAL_RCC_OscConfig+0x9a>
 8002370:	686b      	ldr	r3, [r5, #4]
 8002372:	03db      	lsls	r3, r3, #15
 8002374:	d507      	bpl.n	8002386 <HAL_RCC_OscConfig+0x9a>
 8002376:	682b      	ldr	r3, [r5, #0]
 8002378:	039b      	lsls	r3, r3, #14
 800237a:	d5bf      	bpl.n	80022fc <HAL_RCC_OscConfig+0x10>
 800237c:	6863      	ldr	r3, [r4, #4]
 800237e:	2b00      	cmp	r3, #0
 8002380:	d1bc      	bne.n	80022fc <HAL_RCC_OscConfig+0x10>
 8002382:	2001      	movs	r0, #1
 8002384:	e015      	b.n	80023b2 <HAL_RCC_OscConfig+0xc6>
 8002386:	6863      	ldr	r3, [r4, #4]
 8002388:	2b01      	cmp	r3, #1
 800238a:	d114      	bne.n	80023b6 <HAL_RCC_OscConfig+0xca>
 800238c:	2380      	movs	r3, #128	; 0x80
 800238e:	682a      	ldr	r2, [r5, #0]
 8002390:	025b      	lsls	r3, r3, #9
 8002392:	4313      	orrs	r3, r2
 8002394:	602b      	str	r3, [r5, #0]
 8002396:	f7ff fa75 	bl	8001884 <HAL_GetTick>
 800239a:	2780      	movs	r7, #128	; 0x80
 800239c:	0006      	movs	r6, r0
 800239e:	02bf      	lsls	r7, r7, #10
 80023a0:	682b      	ldr	r3, [r5, #0]
 80023a2:	423b      	tst	r3, r7
 80023a4:	d1aa      	bne.n	80022fc <HAL_RCC_OscConfig+0x10>
 80023a6:	f7ff fa6d 	bl	8001884 <HAL_GetTick>
 80023aa:	1b80      	subs	r0, r0, r6
 80023ac:	2864      	cmp	r0, #100	; 0x64
 80023ae:	d9f7      	bls.n	80023a0 <HAL_RCC_OscConfig+0xb4>
 80023b0:	2003      	movs	r0, #3
 80023b2:	b005      	add	sp, #20
 80023b4:	bdf0      	pop	{r4, r5, r6, r7, pc}
 80023b6:	2b00      	cmp	r3, #0
 80023b8:	d116      	bne.n	80023e8 <HAL_RCC_OscConfig+0xfc>
 80023ba:	682b      	ldr	r3, [r5, #0]
 80023bc:	4a8e      	ldr	r2, [pc, #568]	; (80025f8 <HAL_RCC_OscConfig+0x30c>)
 80023be:	2780      	movs	r7, #128	; 0x80
 80023c0:	4013      	ands	r3, r2
 80023c2:	602b      	str	r3, [r5, #0]
 80023c4:	682b      	ldr	r3, [r5, #0]
 80023c6:	4a8d      	ldr	r2, [pc, #564]	; (80025fc <HAL_RCC_OscConfig+0x310>)
 80023c8:	02bf      	lsls	r7, r7, #10
 80023ca:	4013      	ands	r3, r2
 80023cc:	602b      	str	r3, [r5, #0]
 80023ce:	f7ff fa59 	bl	8001884 <HAL_GetTick>
 80023d2:	0006      	movs	r6, r0
 80023d4:	682b      	ldr	r3, [r5, #0]
 80023d6:	423b      	tst	r3, r7
 80023d8:	d100      	bne.n	80023dc <HAL_RCC_OscConfig+0xf0>
 80023da:	e78f      	b.n	80022fc <HAL_RCC_OscConfig+0x10>
 80023dc:	f7ff fa52 	bl	8001884 <HAL_GetTick>
 80023e0:	1b80      	subs	r0, r0, r6
 80023e2:	2864      	cmp	r0, #100	; 0x64
 80023e4:	d9f6      	bls.n	80023d4 <HAL_RCC_OscConfig+0xe8>
 80023e6:	e7e3      	b.n	80023b0 <HAL_RCC_OscConfig+0xc4>
 80023e8:	2b05      	cmp	r3, #5
 80023ea:	d105      	bne.n	80023f8 <HAL_RCC_OscConfig+0x10c>
 80023ec:	2380      	movs	r3, #128	; 0x80
 80023ee:	682a      	ldr	r2, [r5, #0]
 80023f0:	02db      	lsls	r3, r3, #11
 80023f2:	4313      	orrs	r3, r2
 80023f4:	602b      	str	r3, [r5, #0]
 80023f6:	e7c9      	b.n	800238c <HAL_RCC_OscConfig+0xa0>
 80023f8:	682b      	ldr	r3, [r5, #0]
 80023fa:	4a7f      	ldr	r2, [pc, #508]	; (80025f8 <HAL_RCC_OscConfig+0x30c>)
 80023fc:	4013      	ands	r3, r2
 80023fe:	602b      	str	r3, [r5, #0]
 8002400:	682b      	ldr	r3, [r5, #0]
 8002402:	4a7e      	ldr	r2, [pc, #504]	; (80025fc <HAL_RCC_OscConfig+0x310>)
 8002404:	4013      	ands	r3, r2
 8002406:	e7c5      	b.n	8002394 <HAL_RCC_OscConfig+0xa8>
 8002408:	220c      	movs	r2, #12
 800240a:	4d7a      	ldr	r5, [pc, #488]	; (80025f4 <HAL_RCC_OscConfig+0x308>)
 800240c:	686b      	ldr	r3, [r5, #4]
 800240e:	4213      	tst	r3, r2
 8002410:	d006      	beq.n	8002420 <HAL_RCC_OscConfig+0x134>
 8002412:	686b      	ldr	r3, [r5, #4]
 8002414:	4013      	ands	r3, r2
 8002416:	2b08      	cmp	r3, #8
 8002418:	d110      	bne.n	800243c <HAL_RCC_OscConfig+0x150>
 800241a:	686b      	ldr	r3, [r5, #4]
 800241c:	03db      	lsls	r3, r3, #15
 800241e:	d40d      	bmi.n	800243c <HAL_RCC_OscConfig+0x150>
 8002420:	682b      	ldr	r3, [r5, #0]
 8002422:	079b      	lsls	r3, r3, #30
 8002424:	d502      	bpl.n	800242c <HAL_RCC_OscConfig+0x140>
 8002426:	68e3      	ldr	r3, [r4, #12]
 8002428:	2b01      	cmp	r3, #1
 800242a:	d1aa      	bne.n	8002382 <HAL_RCC_OscConfig+0x96>
 800242c:	21f8      	movs	r1, #248	; 0xf8
 800242e:	682a      	ldr	r2, [r5, #0]
 8002430:	6923      	ldr	r3, [r4, #16]
 8002432:	438a      	bics	r2, r1
 8002434:	00db      	lsls	r3, r3, #3
 8002436:	4313      	orrs	r3, r2
 8002438:	602b      	str	r3, [r5, #0]
 800243a:	e763      	b.n	8002304 <HAL_RCC_OscConfig+0x18>
 800243c:	68e2      	ldr	r2, [r4, #12]
 800243e:	2301      	movs	r3, #1
 8002440:	2a00      	cmp	r2, #0
 8002442:	d00f      	beq.n	8002464 <HAL_RCC_OscConfig+0x178>
 8002444:	682a      	ldr	r2, [r5, #0]
 8002446:	2702      	movs	r7, #2
 8002448:	4313      	orrs	r3, r2
 800244a:	602b      	str	r3, [r5, #0]
 800244c:	f7ff fa1a 	bl	8001884 <HAL_GetTick>
 8002450:	0006      	movs	r6, r0
 8002452:	682b      	ldr	r3, [r5, #0]
 8002454:	423b      	tst	r3, r7
 8002456:	d1e9      	bne.n	800242c <HAL_RCC_OscConfig+0x140>
 8002458:	f7ff fa14 	bl	8001884 <HAL_GetTick>
 800245c:	1b80      	subs	r0, r0, r6
 800245e:	2802      	cmp	r0, #2
 8002460:	d9f7      	bls.n	8002452 <HAL_RCC_OscConfig+0x166>
 8002462:	e7a5      	b.n	80023b0 <HAL_RCC_OscConfig+0xc4>
 8002464:	682a      	ldr	r2, [r5, #0]
 8002466:	2702      	movs	r7, #2
 8002468:	439a      	bics	r2, r3
 800246a:	602a      	str	r2, [r5, #0]
 800246c:	f7ff fa0a 	bl	8001884 <HAL_GetTick>
 8002470:	0006      	movs	r6, r0
 8002472:	682b      	ldr	r3, [r5, #0]
 8002474:	423b      	tst	r3, r7
 8002476:	d100      	bne.n	800247a <HAL_RCC_OscConfig+0x18e>
 8002478:	e744      	b.n	8002304 <HAL_RCC_OscConfig+0x18>
 800247a:	f7ff fa03 	bl	8001884 <HAL_GetTick>
 800247e:	1b80      	subs	r0, r0, r6
 8002480:	2802      	cmp	r0, #2
 8002482:	d9f6      	bls.n	8002472 <HAL_RCC_OscConfig+0x186>
 8002484:	e794      	b.n	80023b0 <HAL_RCC_OscConfig+0xc4>
 8002486:	69e2      	ldr	r2, [r4, #28]
 8002488:	2301      	movs	r3, #1
 800248a:	4d5a      	ldr	r5, [pc, #360]	; (80025f4 <HAL_RCC_OscConfig+0x308>)
 800248c:	2a00      	cmp	r2, #0
 800248e:	d010      	beq.n	80024b2 <HAL_RCC_OscConfig+0x1c6>
 8002490:	6a6a      	ldr	r2, [r5, #36]	; 0x24
 8002492:	2702      	movs	r7, #2
 8002494:	4313      	orrs	r3, r2
 8002496:	626b      	str	r3, [r5, #36]	; 0x24
 8002498:	f7ff f9f4 	bl	8001884 <HAL_GetTick>
 800249c:	0006      	movs	r6, r0
 800249e:	6a6b      	ldr	r3, [r5, #36]	; 0x24
 80024a0:	423b      	tst	r3, r7
 80024a2:	d000      	beq.n	80024a6 <HAL_RCC_OscConfig+0x1ba>
 80024a4:	e732      	b.n	800230c <HAL_RCC_OscConfig+0x20>
 80024a6:	f7ff f9ed 	bl	8001884 <HAL_GetTick>
 80024aa:	1b80      	subs	r0, r0, r6
 80024ac:	2802      	cmp	r0, #2
 80024ae:	d9f6      	bls.n	800249e <HAL_RCC_OscConfig+0x1b2>
 80024b0:	e77e      	b.n	80023b0 <HAL_RCC_OscConfig+0xc4>
 80024b2:	6a6a      	ldr	r2, [r5, #36]	; 0x24
 80024b4:	2702      	movs	r7, #2
 80024b6:	439a      	bics	r2, r3
 80024b8:	626a      	str	r2, [r5, #36]	; 0x24
 80024ba:	f7ff f9e3 	bl	8001884 <HAL_GetTick>
 80024be:	0006      	movs	r6, r0
 80024c0:	6a6b      	ldr	r3, [r5, #36]	; 0x24
 80024c2:	423b      	tst	r3, r7
 80024c4:	d100      	bne.n	80024c8 <HAL_RCC_OscConfig+0x1dc>
 80024c6:	e721      	b.n	800230c <HAL_RCC_OscConfig+0x20>
 80024c8:	f7ff f9dc 	bl	8001884 <HAL_GetTick>
 80024cc:	1b80      	subs	r0, r0, r6
 80024ce:	2802      	cmp	r0, #2
 80024d0:	d9f6      	bls.n	80024c0 <HAL_RCC_OscConfig+0x1d4>
 80024d2:	e76d      	b.n	80023b0 <HAL_RCC_OscConfig+0xc4>
 80024d4:	2280      	movs	r2, #128	; 0x80
 80024d6:	2100      	movs	r1, #0
 80024d8:	4d46      	ldr	r5, [pc, #280]	; (80025f4 <HAL_RCC_OscConfig+0x308>)
 80024da:	0552      	lsls	r2, r2, #21
 80024dc:	69eb      	ldr	r3, [r5, #28]
 80024de:	9100      	str	r1, [sp, #0]
 80024e0:	4213      	tst	r3, r2
 80024e2:	d108      	bne.n	80024f6 <HAL_RCC_OscConfig+0x20a>
 80024e4:	69eb      	ldr	r3, [r5, #28]
 80024e6:	4313      	orrs	r3, r2
 80024e8:	61eb      	str	r3, [r5, #28]
 80024ea:	69eb      	ldr	r3, [r5, #28]
 80024ec:	4013      	ands	r3, r2
 80024ee:	9303      	str	r3, [sp, #12]
 80024f0:	9b03      	ldr	r3, [sp, #12]
 80024f2:	2301      	movs	r3, #1
 80024f4:	9300      	str	r3, [sp, #0]
 80024f6:	2780      	movs	r7, #128	; 0x80
 80024f8:	4e41      	ldr	r6, [pc, #260]	; (8002600 <HAL_RCC_OscConfig+0x314>)
 80024fa:	007f      	lsls	r7, r7, #1
 80024fc:	6833      	ldr	r3, [r6, #0]
 80024fe:	423b      	tst	r3, r7
 8002500:	d006      	beq.n	8002510 <HAL_RCC_OscConfig+0x224>
 8002502:	68a3      	ldr	r3, [r4, #8]
 8002504:	2b01      	cmp	r3, #1
 8002506:	d113      	bne.n	8002530 <HAL_RCC_OscConfig+0x244>
 8002508:	6a2a      	ldr	r2, [r5, #32]
 800250a:	4313      	orrs	r3, r2
 800250c:	622b      	str	r3, [r5, #32]
 800250e:	e030      	b.n	8002572 <HAL_RCC_OscConfig+0x286>
 8002510:	6833      	ldr	r3, [r6, #0]
 8002512:	433b      	orrs	r3, r7
 8002514:	6033      	str	r3, [r6, #0]
 8002516:	f7ff f9b5 	bl	8001884 <HAL_GetTick>
 800251a:	9001      	str	r0, [sp, #4]
 800251c:	6833      	ldr	r3, [r6, #0]
 800251e:	423b      	tst	r3, r7
 8002520:	d1ef      	bne.n	8002502 <HAL_RCC_OscConfig+0x216>
 8002522:	f7ff f9af 	bl	8001884 <HAL_GetTick>
 8002526:	9b01      	ldr	r3, [sp, #4]
 8002528:	1ac0      	subs	r0, r0, r3
 800252a:	2864      	cmp	r0, #100	; 0x64
 800252c:	d9f6      	bls.n	800251c <HAL_RCC_OscConfig+0x230>
 800252e:	e73f      	b.n	80023b0 <HAL_RCC_OscConfig+0xc4>
 8002530:	2201      	movs	r2, #1
 8002532:	2b00      	cmp	r3, #0
 8002534:	d114      	bne.n	8002560 <HAL_RCC_OscConfig+0x274>
 8002536:	6a2b      	ldr	r3, [r5, #32]
 8002538:	2702      	movs	r7, #2
 800253a:	4393      	bics	r3, r2
 800253c:	622b      	str	r3, [r5, #32]
 800253e:	6a2b      	ldr	r3, [r5, #32]
 8002540:	3203      	adds	r2, #3
 8002542:	4393      	bics	r3, r2
 8002544:	622b      	str	r3, [r5, #32]
 8002546:	f7ff f99d 	bl	8001884 <HAL_GetTick>
 800254a:	0006      	movs	r6, r0
 800254c:	6a2b      	ldr	r3, [r5, #32]
 800254e:	423b      	tst	r3, r7
 8002550:	d016      	beq.n	8002580 <HAL_RCC_OscConfig+0x294>
 8002552:	f7ff f997 	bl	8001884 <HAL_GetTick>
 8002556:	4b2b      	ldr	r3, [pc, #172]	; (8002604 <HAL_RCC_OscConfig+0x318>)
 8002558:	1b80      	subs	r0, r0, r6
 800255a:	4298      	cmp	r0, r3
 800255c:	d9f6      	bls.n	800254c <HAL_RCC_OscConfig+0x260>
 800255e:	e727      	b.n	80023b0 <HAL_RCC_OscConfig+0xc4>
 8002560:	2b05      	cmp	r3, #5
 8002562:	d116      	bne.n	8002592 <HAL_RCC_OscConfig+0x2a6>
 8002564:	6a29      	ldr	r1, [r5, #32]
 8002566:	3b01      	subs	r3, #1
 8002568:	430b      	orrs	r3, r1
 800256a:	622b      	str	r3, [r5, #32]
 800256c:	6a2b      	ldr	r3, [r5, #32]
 800256e:	431a      	orrs	r2, r3
 8002570:	622a      	str	r2, [r5, #32]
 8002572:	f7ff f987 	bl	8001884 <HAL_GetTick>
 8002576:	2702      	movs	r7, #2
 8002578:	0006      	movs	r6, r0
 800257a:	6a2b      	ldr	r3, [r5, #32]
 800257c:	423b      	tst	r3, r7
 800257e:	d00f      	beq.n	80025a0 <HAL_RCC_OscConfig+0x2b4>
 8002580:	9b00      	ldr	r3, [sp, #0]
 8002582:	2b01      	cmp	r3, #1
 8002584:	d000      	beq.n	8002588 <HAL_RCC_OscConfig+0x29c>
 8002586:	e6c5      	b.n	8002314 <HAL_RCC_OscConfig+0x28>
 8002588:	69eb      	ldr	r3, [r5, #28]
 800258a:	4a1f      	ldr	r2, [pc, #124]	; (8002608 <HAL_RCC_OscConfig+0x31c>)
 800258c:	4013      	ands	r3, r2
 800258e:	61eb      	str	r3, [r5, #28]
 8002590:	e6c0      	b.n	8002314 <HAL_RCC_OscConfig+0x28>
 8002592:	6a2b      	ldr	r3, [r5, #32]
 8002594:	4393      	bics	r3, r2
 8002596:	2204      	movs	r2, #4
 8002598:	622b      	str	r3, [r5, #32]
 800259a:	6a2b      	ldr	r3, [r5, #32]
 800259c:	4393      	bics	r3, r2
 800259e:	e7b5      	b.n	800250c <HAL_RCC_OscConfig+0x220>
 80025a0:	f7ff f970 	bl	8001884 <HAL_GetTick>
 80025a4:	4b17      	ldr	r3, [pc, #92]	; (8002604 <HAL_RCC_OscConfig+0x318>)
 80025a6:	1b80      	subs	r0, r0, r6
 80025a8:	4298      	cmp	r0, r3
 80025aa:	d9e6      	bls.n	800257a <HAL_RCC_OscConfig+0x28e>
 80025ac:	e700      	b.n	80023b0 <HAL_RCC_OscConfig+0xc4>
 80025ae:	f7ff f969 	bl	8001884 <HAL_GetTick>
 80025b2:	1b80      	subs	r0, r0, r6
 80025b4:	2802      	cmp	r0, #2
 80025b6:	d800      	bhi.n	80025ba <HAL_RCC_OscConfig+0x2ce>
 80025b8:	e6bf      	b.n	800233a <HAL_RCC_OscConfig+0x4e>
 80025ba:	e6f9      	b.n	80023b0 <HAL_RCC_OscConfig+0xc4>
 80025bc:	3205      	adds	r2, #5
 80025be:	d103      	bne.n	80025c8 <HAL_RCC_OscConfig+0x2dc>
 80025c0:	6b6a      	ldr	r2, [r5, #52]	; 0x34
 80025c2:	439a      	bics	r2, r3
 80025c4:	636a      	str	r2, [r5, #52]	; 0x34
 80025c6:	e6bc      	b.n	8002342 <HAL_RCC_OscConfig+0x56>
 80025c8:	6b6a      	ldr	r2, [r5, #52]	; 0x34
 80025ca:	2702      	movs	r7, #2
 80025cc:	4313      	orrs	r3, r2
 80025ce:	2201      	movs	r2, #1
 80025d0:	636b      	str	r3, [r5, #52]	; 0x34
 80025d2:	6b6b      	ldr	r3, [r5, #52]	; 0x34
 80025d4:	4393      	bics	r3, r2
 80025d6:	636b      	str	r3, [r5, #52]	; 0x34
 80025d8:	f7ff f954 	bl	8001884 <HAL_GetTick>
 80025dc:	0006      	movs	r6, r0
 80025de:	6b6b      	ldr	r3, [r5, #52]	; 0x34
 80025e0:	423b      	tst	r3, r7
 80025e2:	d100      	bne.n	80025e6 <HAL_RCC_OscConfig+0x2fa>
 80025e4:	e6b4      	b.n	8002350 <HAL_RCC_OscConfig+0x64>
 80025e6:	f7ff f94d 	bl	8001884 <HAL_GetTick>
 80025ea:	1b80      	subs	r0, r0, r6
 80025ec:	2802      	cmp	r0, #2
 80025ee:	d9f6      	bls.n	80025de <HAL_RCC_OscConfig+0x2f2>
 80025f0:	e6de      	b.n	80023b0 <HAL_RCC_OscConfig+0xc4>
 80025f2:	46c0      	nop			; (mov r8, r8)
 80025f4:	40021000 	.word	0x40021000
 80025f8:	fffeffff 	.word	0xfffeffff
 80025fc:	fffbffff 	.word	0xfffbffff
 8002600:	40007000 	.word	0x40007000
 8002604:	00001388 	.word	0x00001388
 8002608:	efffffff 	.word	0xefffffff
 800260c:	200c      	movs	r0, #12
 800260e:	4a34      	ldr	r2, [pc, #208]	; (80026e0 <HAL_RCC_OscConfig+0x3f4>)
 8002610:	6851      	ldr	r1, [r2, #4]
 8002612:	0015      	movs	r5, r2
 8002614:	4001      	ands	r1, r0
 8002616:	2908      	cmp	r1, #8
 8002618:	d047      	beq.n	80026aa <HAL_RCC_OscConfig+0x3be>
 800261a:	4a32      	ldr	r2, [pc, #200]	; (80026e4 <HAL_RCC_OscConfig+0x3f8>)
 800261c:	2b02      	cmp	r3, #2
 800261e:	d132      	bne.n	8002686 <HAL_RCC_OscConfig+0x39a>
 8002620:	682b      	ldr	r3, [r5, #0]
 8002622:	2780      	movs	r7, #128	; 0x80
 8002624:	4013      	ands	r3, r2
 8002626:	602b      	str	r3, [r5, #0]
 8002628:	f7ff f92c 	bl	8001884 <HAL_GetTick>
 800262c:	0006      	movs	r6, r0
 800262e:	04bf      	lsls	r7, r7, #18
 8002630:	682b      	ldr	r3, [r5, #0]
 8002632:	423b      	tst	r3, r7
 8002634:	d121      	bne.n	800267a <HAL_RCC_OscConfig+0x38e>
 8002636:	220f      	movs	r2, #15
 8002638:	6aeb      	ldr	r3, [r5, #44]	; 0x2c
 800263a:	2680      	movs	r6, #128	; 0x80
 800263c:	4393      	bics	r3, r2
 800263e:	6ae2      	ldr	r2, [r4, #44]	; 0x2c
 8002640:	04b6      	lsls	r6, r6, #18
 8002642:	4313      	orrs	r3, r2
 8002644:	62eb      	str	r3, [r5, #44]	; 0x2c
 8002646:	6a61      	ldr	r1, [r4, #36]	; 0x24
 8002648:	6aa3      	ldr	r3, [r4, #40]	; 0x28
 800264a:	686a      	ldr	r2, [r5, #4]
 800264c:	430b      	orrs	r3, r1
 800264e:	4926      	ldr	r1, [pc, #152]	; (80026e8 <HAL_RCC_OscConfig+0x3fc>)
 8002650:	400a      	ands	r2, r1
 8002652:	4313      	orrs	r3, r2
 8002654:	606b      	str	r3, [r5, #4]
 8002656:	2380      	movs	r3, #128	; 0x80
 8002658:	682a      	ldr	r2, [r5, #0]
 800265a:	045b      	lsls	r3, r3, #17
 800265c:	4313      	orrs	r3, r2
 800265e:	602b      	str	r3, [r5, #0]
 8002660:	f7ff f910 	bl	8001884 <HAL_GetTick>
 8002664:	0004      	movs	r4, r0
 8002666:	682b      	ldr	r3, [r5, #0]
 8002668:	4233      	tst	r3, r6
 800266a:	d000      	beq.n	800266e <HAL_RCC_OscConfig+0x382>
 800266c:	e674      	b.n	8002358 <HAL_RCC_OscConfig+0x6c>
 800266e:	f7ff f909 	bl	8001884 <HAL_GetTick>
 8002672:	1b00      	subs	r0, r0, r4
 8002674:	2802      	cmp	r0, #2
 8002676:	d9f6      	bls.n	8002666 <HAL_RCC_OscConfig+0x37a>
 8002678:	e69a      	b.n	80023b0 <HAL_RCC_OscConfig+0xc4>
 800267a:	f7ff f903 	bl	8001884 <HAL_GetTick>
 800267e:	1b80      	subs	r0, r0, r6
 8002680:	2802      	cmp	r0, #2
 8002682:	d9d5      	bls.n	8002630 <HAL_RCC_OscConfig+0x344>
 8002684:	e694      	b.n	80023b0 <HAL_RCC_OscConfig+0xc4>
 8002686:	682b      	ldr	r3, [r5, #0]
 8002688:	2680      	movs	r6, #128	; 0x80
 800268a:	4013      	ands	r3, r2
 800268c:	602b      	str	r3, [r5, #0]
 800268e:	f7ff f8f9 	bl	8001884 <HAL_GetTick>
 8002692:	0004      	movs	r4, r0
 8002694:	04b6      	lsls	r6, r6, #18
 8002696:	682b      	ldr	r3, [r5, #0]
 8002698:	4233      	tst	r3, r6
 800269a:	d100      	bne.n	800269e <HAL_RCC_OscConfig+0x3b2>
 800269c:	e65c      	b.n	8002358 <HAL_RCC_OscConfig+0x6c>
 800269e:	f7ff f8f1 	bl	8001884 <HAL_GetTick>
 80026a2:	1b00      	subs	r0, r0, r4
 80026a4:	2802      	cmp	r0, #2
 80026a6:	d9f6      	bls.n	8002696 <HAL_RCC_OscConfig+0x3aa>
 80026a8:	e682      	b.n	80023b0 <HAL_RCC_OscConfig+0xc4>
 80026aa:	0018      	movs	r0, r3
 80026ac:	2b01      	cmp	r3, #1
 80026ae:	d100      	bne.n	80026b2 <HAL_RCC_OscConfig+0x3c6>
 80026b0:	e67f      	b.n	80023b2 <HAL_RCC_OscConfig+0xc6>
 80026b2:	2180      	movs	r1, #128	; 0x80
 80026b4:	6853      	ldr	r3, [r2, #4]
 80026b6:	6a60      	ldr	r0, [r4, #36]	; 0x24
 80026b8:	0249      	lsls	r1, r1, #9
 80026ba:	6ad2      	ldr	r2, [r2, #44]	; 0x2c
 80026bc:	4019      	ands	r1, r3
 80026be:	4281      	cmp	r1, r0
 80026c0:	d000      	beq.n	80026c4 <HAL_RCC_OscConfig+0x3d8>
 80026c2:	e65e      	b.n	8002382 <HAL_RCC_OscConfig+0x96>
 80026c4:	210f      	movs	r1, #15
 80026c6:	400a      	ands	r2, r1
 80026c8:	6ae1      	ldr	r1, [r4, #44]	; 0x2c
 80026ca:	428a      	cmp	r2, r1
 80026cc:	d000      	beq.n	80026d0 <HAL_RCC_OscConfig+0x3e4>
 80026ce:	e658      	b.n	8002382 <HAL_RCC_OscConfig+0x96>
 80026d0:	22f0      	movs	r2, #240	; 0xf0
 80026d2:	0392      	lsls	r2, r2, #14
 80026d4:	4013      	ands	r3, r2
 80026d6:	6aa2      	ldr	r2, [r4, #40]	; 0x28
 80026d8:	4293      	cmp	r3, r2
 80026da:	d100      	bne.n	80026de <HAL_RCC_OscConfig+0x3f2>
 80026dc:	e63c      	b.n	8002358 <HAL_RCC_OscConfig+0x6c>
 80026de:	e650      	b.n	8002382 <HAL_RCC_OscConfig+0x96>
 80026e0:	40021000 	.word	0x40021000
 80026e4:	feffffff 	.word	0xfeffffff
 80026e8:	ffc2ffff 	.word	0xffc2ffff

080026ec <HAL_RCC_GetSysClockFreq>:
 80026ec:	b570      	push	{r4, r5, r6, lr}
 80026ee:	b088      	sub	sp, #32
 80026f0:	2210      	movs	r2, #16
 80026f2:	4912      	ldr	r1, [pc, #72]	; (800273c <HAL_RCC_GetSysClockFreq+0x50>)
 80026f4:	4668      	mov	r0, sp
 80026f6:	ad04      	add	r5, sp, #16
 80026f8:	f001 f8a6 	bl	8003848 <memcpy>
 80026fc:	2210      	movs	r2, #16
 80026fe:	0028      	movs	r0, r5
 8002700:	490f      	ldr	r1, [pc, #60]	; (8002740 <HAL_RCC_GetSysClockFreq+0x54>)
 8002702:	f001 f8a1 	bl	8003848 <memcpy>
 8002706:	220c      	movs	r2, #12
 8002708:	4e0e      	ldr	r6, [pc, #56]	; (8002744 <HAL_RCC_GetSysClockFreq+0x58>)
 800270a:	6873      	ldr	r3, [r6, #4]
 800270c:	401a      	ands	r2, r3
 800270e:	2a08      	cmp	r2, #8
 8002710:	d111      	bne.n	8002736 <HAL_RCC_GetSysClockFreq+0x4a>
 8002712:	200f      	movs	r0, #15
 8002714:	466a      	mov	r2, sp
 8002716:	0c99      	lsrs	r1, r3, #18
 8002718:	4001      	ands	r1, r0
 800271a:	5c54      	ldrb	r4, [r2, r1]
 800271c:	6af2      	ldr	r2, [r6, #44]	; 0x2c
 800271e:	4002      	ands	r2, r0
 8002720:	5ca9      	ldrb	r1, [r5, r2]
 8002722:	03db      	lsls	r3, r3, #15
 8002724:	d505      	bpl.n	8002732 <HAL_RCC_GetSysClockFreq+0x46>
 8002726:	4808      	ldr	r0, [pc, #32]	; (8002748 <HAL_RCC_GetSysClockFreq+0x5c>)
 8002728:	f7fd fd0a 	bl	8000140 <__udivsi3>
 800272c:	4360      	muls	r0, r4
 800272e:	b008      	add	sp, #32
 8002730:	bd70      	pop	{r4, r5, r6, pc}
 8002732:	4806      	ldr	r0, [pc, #24]	; (800274c <HAL_RCC_GetSysClockFreq+0x60>)
 8002734:	e7fa      	b.n	800272c <HAL_RCC_GetSysClockFreq+0x40>
 8002736:	4804      	ldr	r0, [pc, #16]	; (8002748 <HAL_RCC_GetSysClockFreq+0x5c>)
 8002738:	e7f9      	b.n	800272e <HAL_RCC_GetSysClockFreq+0x42>
 800273a:	46c0      	nop			; (mov r8, r8)
 800273c:	08004a52 	.word	0x08004a52
 8002740:	08004a63 	.word	0x08004a63
 8002744:	40021000 	.word	0x40021000
 8002748:	007a1200 	.word	0x007a1200
 800274c:	003d0900 	.word	0x003d0900

08002750 <HAL_RCC_ClockConfig>:
 8002750:	b5f7      	push	{r0, r1, r2, r4, r5, r6, r7, lr}
 8002752:	0005      	movs	r5, r0
 8002754:	000e      	movs	r6, r1
 8002756:	2800      	cmp	r0, #0
 8002758:	d101      	bne.n	800275e <HAL_RCC_ClockConfig+0xe>
 800275a:	2001      	movs	r0, #1
 800275c:	bdfe      	pop	{r1, r2, r3, r4, r5, r6, r7, pc}
 800275e:	2201      	movs	r2, #1
 8002760:	4c37      	ldr	r4, [pc, #220]	; (8002840 <HAL_RCC_ClockConfig+0xf0>)
 8002762:	6823      	ldr	r3, [r4, #0]
 8002764:	4013      	ands	r3, r2
 8002766:	428b      	cmp	r3, r1
 8002768:	d31c      	bcc.n	80027a4 <HAL_RCC_ClockConfig+0x54>
 800276a:	6829      	ldr	r1, [r5, #0]
 800276c:	078b      	lsls	r3, r1, #30
 800276e:	d422      	bmi.n	80027b6 <HAL_RCC_ClockConfig+0x66>
 8002770:	07cb      	lsls	r3, r1, #31
 8002772:	d42f      	bmi.n	80027d4 <HAL_RCC_ClockConfig+0x84>
 8002774:	2301      	movs	r3, #1
 8002776:	6822      	ldr	r2, [r4, #0]
 8002778:	401a      	ands	r2, r3
 800277a:	42b2      	cmp	r2, r6
 800277c:	d851      	bhi.n	8002822 <HAL_RCC_ClockConfig+0xd2>
 800277e:	682b      	ldr	r3, [r5, #0]
 8002780:	4c30      	ldr	r4, [pc, #192]	; (8002844 <HAL_RCC_ClockConfig+0xf4>)
 8002782:	075b      	lsls	r3, r3, #29
 8002784:	d454      	bmi.n	8002830 <HAL_RCC_ClockConfig+0xe0>
 8002786:	f7ff ffb1 	bl	80026ec <HAL_RCC_GetSysClockFreq>
 800278a:	6863      	ldr	r3, [r4, #4]
 800278c:	4a2e      	ldr	r2, [pc, #184]	; (8002848 <HAL_RCC_ClockConfig+0xf8>)
 800278e:	061b      	lsls	r3, r3, #24
 8002790:	0f1b      	lsrs	r3, r3, #28
 8002792:	5cd3      	ldrb	r3, [r2, r3]
 8002794:	40d8      	lsrs	r0, r3
 8002796:	4b2d      	ldr	r3, [pc, #180]	; (800284c <HAL_RCC_ClockConfig+0xfc>)
 8002798:	6018      	str	r0, [r3, #0]
 800279a:	2000      	movs	r0, #0
 800279c:	f7ff f832 	bl	8001804 <HAL_InitTick>
 80027a0:	2000      	movs	r0, #0
 80027a2:	e7db      	b.n	800275c <HAL_RCC_ClockConfig+0xc>
 80027a4:	6823      	ldr	r3, [r4, #0]
 80027a6:	4393      	bics	r3, r2
 80027a8:	430b      	orrs	r3, r1
 80027aa:	6023      	str	r3, [r4, #0]
 80027ac:	6823      	ldr	r3, [r4, #0]
 80027ae:	4013      	ands	r3, r2
 80027b0:	428b      	cmp	r3, r1
 80027b2:	d1d2      	bne.n	800275a <HAL_RCC_ClockConfig+0xa>
 80027b4:	e7d9      	b.n	800276a <HAL_RCC_ClockConfig+0x1a>
 80027b6:	4a23      	ldr	r2, [pc, #140]	; (8002844 <HAL_RCC_ClockConfig+0xf4>)
 80027b8:	074b      	lsls	r3, r1, #29
 80027ba:	d504      	bpl.n	80027c6 <HAL_RCC_ClockConfig+0x76>
 80027bc:	23e0      	movs	r3, #224	; 0xe0
 80027be:	6850      	ldr	r0, [r2, #4]
 80027c0:	00db      	lsls	r3, r3, #3
 80027c2:	4303      	orrs	r3, r0
 80027c4:	6053      	str	r3, [r2, #4]
 80027c6:	20f0      	movs	r0, #240	; 0xf0
 80027c8:	6853      	ldr	r3, [r2, #4]
 80027ca:	4383      	bics	r3, r0
 80027cc:	68a8      	ldr	r0, [r5, #8]
 80027ce:	4303      	orrs	r3, r0
 80027d0:	6053      	str	r3, [r2, #4]
 80027d2:	e7cd      	b.n	8002770 <HAL_RCC_ClockConfig+0x20>
 80027d4:	4f1b      	ldr	r7, [pc, #108]	; (8002844 <HAL_RCC_ClockConfig+0xf4>)
 80027d6:	686a      	ldr	r2, [r5, #4]
 80027d8:	683b      	ldr	r3, [r7, #0]
 80027da:	2a01      	cmp	r2, #1
 80027dc:	d119      	bne.n	8002812 <HAL_RCC_ClockConfig+0xc2>
 80027de:	039b      	lsls	r3, r3, #14
 80027e0:	d5bb      	bpl.n	800275a <HAL_RCC_ClockConfig+0xa>
 80027e2:	2103      	movs	r1, #3
 80027e4:	687b      	ldr	r3, [r7, #4]
 80027e6:	438b      	bics	r3, r1
 80027e8:	4313      	orrs	r3, r2
 80027ea:	607b      	str	r3, [r7, #4]
 80027ec:	f7ff f84a 	bl	8001884 <HAL_GetTick>
 80027f0:	9001      	str	r0, [sp, #4]
 80027f2:	230c      	movs	r3, #12
 80027f4:	687a      	ldr	r2, [r7, #4]
 80027f6:	401a      	ands	r2, r3
 80027f8:	686b      	ldr	r3, [r5, #4]
 80027fa:	009b      	lsls	r3, r3, #2
 80027fc:	429a      	cmp	r2, r3
 80027fe:	d0b9      	beq.n	8002774 <HAL_RCC_ClockConfig+0x24>
 8002800:	f7ff f840 	bl	8001884 <HAL_GetTick>
 8002804:	9b01      	ldr	r3, [sp, #4]
 8002806:	1ac0      	subs	r0, r0, r3
 8002808:	4b11      	ldr	r3, [pc, #68]	; (8002850 <HAL_RCC_ClockConfig+0x100>)
 800280a:	4298      	cmp	r0, r3
 800280c:	d9f1      	bls.n	80027f2 <HAL_RCC_ClockConfig+0xa2>
 800280e:	2003      	movs	r0, #3
 8002810:	e7a4      	b.n	800275c <HAL_RCC_ClockConfig+0xc>
 8002812:	2a02      	cmp	r2, #2
 8002814:	d102      	bne.n	800281c <HAL_RCC_ClockConfig+0xcc>
 8002816:	019b      	lsls	r3, r3, #6
 8002818:	d4e3      	bmi.n	80027e2 <HAL_RCC_ClockConfig+0x92>
 800281a:	e79e      	b.n	800275a <HAL_RCC_ClockConfig+0xa>
 800281c:	079b      	lsls	r3, r3, #30
 800281e:	d4e0      	bmi.n	80027e2 <HAL_RCC_ClockConfig+0x92>
 8002820:	e79b      	b.n	800275a <HAL_RCC_ClockConfig+0xa>
 8002822:	6822      	ldr	r2, [r4, #0]
 8002824:	439a      	bics	r2, r3
 8002826:	6022      	str	r2, [r4, #0]
 8002828:	6822      	ldr	r2, [r4, #0]
 800282a:	421a      	tst	r2, r3
 800282c:	d0a7      	beq.n	800277e <HAL_RCC_ClockConfig+0x2e>
 800282e:	e794      	b.n	800275a <HAL_RCC_ClockConfig+0xa>
 8002830:	6863      	ldr	r3, [r4, #4]
 8002832:	4a08      	ldr	r2, [pc, #32]	; (8002854 <HAL_RCC_ClockConfig+0x104>)
 8002834:	4013      	ands	r3, r2
 8002836:	68ea      	ldr	r2, [r5, #12]
 8002838:	4313      	orrs	r3, r2
 800283a:	6063      	str	r3, [r4, #4]
 800283c:	e7a3      	b.n	8002786 <HAL_RCC_ClockConfig+0x36>
 800283e:	46c0      	nop			; (mov r8, r8)
 8002840:	40022000 	.word	0x40022000
 8002844:	40021000 	.word	0x40021000
 8002848:	08004a3a 	.word	0x08004a3a
 800284c:	2000001c 	.word	0x2000001c
 8002850:	00001388 	.word	0x00001388
 8002854:	fffff8ff 	.word	0xfffff8ff

08002858 <HAL_RCC_GetPCLK1Freq>:
 8002858:	4b04      	ldr	r3, [pc, #16]	; (800286c <HAL_RCC_GetPCLK1Freq+0x14>)
 800285a:	4a05      	ldr	r2, [pc, #20]	; (8002870 <HAL_RCC_GetPCLK1Freq+0x18>)
 800285c:	685b      	ldr	r3, [r3, #4]
 800285e:	055b      	lsls	r3, r3, #21
 8002860:	0f5b      	lsrs	r3, r3, #29
 8002862:	5cd3      	ldrb	r3, [r2, r3]
 8002864:	4a03      	ldr	r2, [pc, #12]	; (8002874 <HAL_RCC_GetPCLK1Freq+0x1c>)
 8002866:	6810      	ldr	r0, [r2, #0]
 8002868:	40d8      	lsrs	r0, r3
 800286a:	4770      	bx	lr
 800286c:	40021000 	.word	0x40021000
 8002870:	08004a4a 	.word	0x08004a4a
 8002874:	2000001c 	.word	0x2000001c

08002878 <HAL_RCCEx_PeriphCLKConfig>:
 8002878:	b5f0      	push	{r4, r5, r6, r7, lr}
 800287a:	6803      	ldr	r3, [r0, #0]
 800287c:	0005      	movs	r5, r0
 800287e:	b085      	sub	sp, #20
 8002880:	03db      	lsls	r3, r3, #15
 8002882:	d52a      	bpl.n	80028da <HAL_RCCEx_PeriphCLKConfig+0x62>
 8002884:	2280      	movs	r2, #128	; 0x80
 8002886:	2100      	movs	r1, #0
 8002888:	4c38      	ldr	r4, [pc, #224]	; (800296c <HAL_RCCEx_PeriphCLKConfig+0xf4>)
 800288a:	0552      	lsls	r2, r2, #21
 800288c:	69e3      	ldr	r3, [r4, #28]
 800288e:	9100      	str	r1, [sp, #0]
 8002890:	4213      	tst	r3, r2
 8002892:	d108      	bne.n	80028a6 <HAL_RCCEx_PeriphCLKConfig+0x2e>
 8002894:	69e3      	ldr	r3, [r4, #28]
 8002896:	4313      	orrs	r3, r2
 8002898:	61e3      	str	r3, [r4, #28]
 800289a:	69e3      	ldr	r3, [r4, #28]
 800289c:	4013      	ands	r3, r2
 800289e:	9303      	str	r3, [sp, #12]
 80028a0:	9b03      	ldr	r3, [sp, #12]
 80028a2:	2301      	movs	r3, #1
 80028a4:	9300      	str	r3, [sp, #0]
 80028a6:	2780      	movs	r7, #128	; 0x80
 80028a8:	4e31      	ldr	r6, [pc, #196]	; (8002970 <HAL_RCCEx_PeriphCLKConfig+0xf8>)
 80028aa:	007f      	lsls	r7, r7, #1
 80028ac:	6833      	ldr	r3, [r6, #0]
 80028ae:	423b      	tst	r3, r7
 80028b0:	d028      	beq.n	8002904 <HAL_RCCEx_PeriphCLKConfig+0x8c>
 80028b2:	6a22      	ldr	r2, [r4, #32]
 80028b4:	23c0      	movs	r3, #192	; 0xc0
 80028b6:	0011      	movs	r1, r2
 80028b8:	009b      	lsls	r3, r3, #2
 80028ba:	4e2e      	ldr	r6, [pc, #184]	; (8002974 <HAL_RCCEx_PeriphCLKConfig+0xfc>)
 80028bc:	4019      	ands	r1, r3
 80028be:	421a      	tst	r2, r3
 80028c0:	d132      	bne.n	8002928 <HAL_RCCEx_PeriphCLKConfig+0xb0>
 80028c2:	6a23      	ldr	r3, [r4, #32]
 80028c4:	401e      	ands	r6, r3
 80028c6:	686b      	ldr	r3, [r5, #4]
 80028c8:	431e      	orrs	r6, r3
 80028ca:	9b00      	ldr	r3, [sp, #0]
 80028cc:	6226      	str	r6, [r4, #32]
 80028ce:	2b01      	cmp	r3, #1
 80028d0:	d103      	bne.n	80028da <HAL_RCCEx_PeriphCLKConfig+0x62>
 80028d2:	69e3      	ldr	r3, [r4, #28]
 80028d4:	4a28      	ldr	r2, [pc, #160]	; (8002978 <HAL_RCCEx_PeriphCLKConfig+0x100>)
 80028d6:	4013      	ands	r3, r2
 80028d8:	61e3      	str	r3, [r4, #28]
 80028da:	682a      	ldr	r2, [r5, #0]
 80028dc:	07d3      	lsls	r3, r2, #31
 80028de:	d506      	bpl.n	80028ee <HAL_RCCEx_PeriphCLKConfig+0x76>
 80028e0:	2003      	movs	r0, #3
 80028e2:	4922      	ldr	r1, [pc, #136]	; (800296c <HAL_RCCEx_PeriphCLKConfig+0xf4>)
 80028e4:	6b0b      	ldr	r3, [r1, #48]	; 0x30
 80028e6:	4383      	bics	r3, r0
 80028e8:	68a8      	ldr	r0, [r5, #8]
 80028ea:	4303      	orrs	r3, r0
 80028ec:	630b      	str	r3, [r1, #48]	; 0x30
 80028ee:	2000      	movs	r0, #0
 80028f0:	0693      	lsls	r3, r2, #26
 80028f2:	d517      	bpl.n	8002924 <HAL_RCCEx_PeriphCLKConfig+0xac>
 80028f4:	2110      	movs	r1, #16
 80028f6:	4a1d      	ldr	r2, [pc, #116]	; (800296c <HAL_RCCEx_PeriphCLKConfig+0xf4>)
 80028f8:	6b13      	ldr	r3, [r2, #48]	; 0x30
 80028fa:	438b      	bics	r3, r1
 80028fc:	68e9      	ldr	r1, [r5, #12]
 80028fe:	430b      	orrs	r3, r1
 8002900:	6313      	str	r3, [r2, #48]	; 0x30
 8002902:	e00f      	b.n	8002924 <HAL_RCCEx_PeriphCLKConfig+0xac>
 8002904:	6833      	ldr	r3, [r6, #0]
 8002906:	433b      	orrs	r3, r7
 8002908:	6033      	str	r3, [r6, #0]
 800290a:	f7fe ffbb 	bl	8001884 <HAL_GetTick>
 800290e:	9001      	str	r0, [sp, #4]
 8002910:	6833      	ldr	r3, [r6, #0]
 8002912:	423b      	tst	r3, r7
 8002914:	d1cd      	bne.n	80028b2 <HAL_RCCEx_PeriphCLKConfig+0x3a>
 8002916:	f7fe ffb5 	bl	8001884 <HAL_GetTick>
 800291a:	9b01      	ldr	r3, [sp, #4]
 800291c:	1ac0      	subs	r0, r0, r3
 800291e:	2864      	cmp	r0, #100	; 0x64
 8002920:	d9f6      	bls.n	8002910 <HAL_RCCEx_PeriphCLKConfig+0x98>
 8002922:	2003      	movs	r0, #3
 8002924:	b005      	add	sp, #20
 8002926:	bdf0      	pop	{r4, r5, r6, r7, pc}
 8002928:	686a      	ldr	r2, [r5, #4]
 800292a:	4013      	ands	r3, r2
 800292c:	428b      	cmp	r3, r1
 800292e:	d0c8      	beq.n	80028c2 <HAL_RCCEx_PeriphCLKConfig+0x4a>
 8002930:	2380      	movs	r3, #128	; 0x80
 8002932:	6a22      	ldr	r2, [r4, #32]
 8002934:	6a20      	ldr	r0, [r4, #32]
 8002936:	0011      	movs	r1, r2
 8002938:	025b      	lsls	r3, r3, #9
 800293a:	4303      	orrs	r3, r0
 800293c:	6223      	str	r3, [r4, #32]
 800293e:	6a23      	ldr	r3, [r4, #32]
 8002940:	480e      	ldr	r0, [pc, #56]	; (800297c <HAL_RCCEx_PeriphCLKConfig+0x104>)
 8002942:	4031      	ands	r1, r6
 8002944:	4003      	ands	r3, r0
 8002946:	6223      	str	r3, [r4, #32]
 8002948:	6221      	str	r1, [r4, #32]
 800294a:	07d3      	lsls	r3, r2, #31
 800294c:	d5b9      	bpl.n	80028c2 <HAL_RCCEx_PeriphCLKConfig+0x4a>
 800294e:	f7fe ff99 	bl	8001884 <HAL_GetTick>
 8002952:	0007      	movs	r7, r0
 8002954:	2202      	movs	r2, #2
 8002956:	6a23      	ldr	r3, [r4, #32]
 8002958:	4213      	tst	r3, r2
 800295a:	d1b2      	bne.n	80028c2 <HAL_RCCEx_PeriphCLKConfig+0x4a>
 800295c:	f7fe ff92 	bl	8001884 <HAL_GetTick>
 8002960:	4b07      	ldr	r3, [pc, #28]	; (8002980 <HAL_RCCEx_PeriphCLKConfig+0x108>)
 8002962:	1bc0      	subs	r0, r0, r7
 8002964:	4298      	cmp	r0, r3
 8002966:	d9f5      	bls.n	8002954 <HAL_RCCEx_PeriphCLKConfig+0xdc>
 8002968:	e7db      	b.n	8002922 <HAL_RCCEx_PeriphCLKConfig+0xaa>
 800296a:	46c0      	nop			; (mov r8, r8)
 800296c:	40021000 	.word	0x40021000
 8002970:	40007000 	.word	0x40007000
 8002974:	fffffcff 	.word	0xfffffcff
 8002978:	efffffff 	.word	0xefffffff
 800297c:	fffeffff 	.word	0xfffeffff
 8002980:	00001388 	.word	0x00001388

08002984 <HAL_TIM_Base_Start>:
 8002984:	0002      	movs	r2, r0
 8002986:	0003      	movs	r3, r0
 8002988:	2001      	movs	r0, #1
 800298a:	323d      	adds	r2, #61	; 0x3d
 800298c:	7811      	ldrb	r1, [r2, #0]
 800298e:	4281      	cmp	r1, r0
 8002990:	d115      	bne.n	80029be <HAL_TIM_Base_Start+0x3a>
 8002992:	2102      	movs	r1, #2
 8002994:	7011      	strb	r1, [r2, #0]
 8002996:	681b      	ldr	r3, [r3, #0]
 8002998:	4a0c      	ldr	r2, [pc, #48]	; (80029cc <HAL_TIM_Base_Start+0x48>)
 800299a:	4293      	cmp	r3, r2
 800299c:	d005      	beq.n	80029aa <HAL_TIM_Base_Start+0x26>
 800299e:	4a0c      	ldr	r2, [pc, #48]	; (80029d0 <HAL_TIM_Base_Start+0x4c>)
 80029a0:	4293      	cmp	r3, r2
 80029a2:	d002      	beq.n	80029aa <HAL_TIM_Base_Start+0x26>
 80029a4:	4a0b      	ldr	r2, [pc, #44]	; (80029d4 <HAL_TIM_Base_Start+0x50>)
 80029a6:	4293      	cmp	r3, r2
 80029a8:	d10a      	bne.n	80029c0 <HAL_TIM_Base_Start+0x3c>
 80029aa:	2107      	movs	r1, #7
 80029ac:	689a      	ldr	r2, [r3, #8]
 80029ae:	2000      	movs	r0, #0
 80029b0:	400a      	ands	r2, r1
 80029b2:	2a06      	cmp	r2, #6
 80029b4:	d003      	beq.n	80029be <HAL_TIM_Base_Start+0x3a>
 80029b6:	2201      	movs	r2, #1
 80029b8:	6819      	ldr	r1, [r3, #0]
 80029ba:	430a      	orrs	r2, r1
 80029bc:	601a      	str	r2, [r3, #0]
 80029be:	4770      	bx	lr
 80029c0:	681a      	ldr	r2, [r3, #0]
 80029c2:	4310      	orrs	r0, r2
 80029c4:	6018      	str	r0, [r3, #0]
 80029c6:	2000      	movs	r0, #0
 80029c8:	e7f9      	b.n	80029be <HAL_TIM_Base_Start+0x3a>
 80029ca:	46c0      	nop			; (mov r8, r8)
 80029cc:	40012c00 	.word	0x40012c00
 80029d0:	40000400 	.word	0x40000400
 80029d4:	40014000 	.word	0x40014000

080029d8 <HAL_TIM_Base_Stop>:
 80029d8:	6803      	ldr	r3, [r0, #0]
 80029da:	4a08      	ldr	r2, [pc, #32]	; (80029fc <HAL_TIM_Base_Stop+0x24>)
 80029dc:	6a19      	ldr	r1, [r3, #32]
 80029de:	4211      	tst	r1, r2
 80029e0:	d107      	bne.n	80029f2 <HAL_TIM_Base_Stop+0x1a>
 80029e2:	6a19      	ldr	r1, [r3, #32]
 80029e4:	4a06      	ldr	r2, [pc, #24]	; (8002a00 <HAL_TIM_Base_Stop+0x28>)
 80029e6:	4211      	tst	r1, r2
 80029e8:	d103      	bne.n	80029f2 <HAL_TIM_Base_Stop+0x1a>
 80029ea:	2101      	movs	r1, #1
 80029ec:	681a      	ldr	r2, [r3, #0]
 80029ee:	438a      	bics	r2, r1
 80029f0:	601a      	str	r2, [r3, #0]
 80029f2:	2301      	movs	r3, #1
 80029f4:	303d      	adds	r0, #61	; 0x3d
 80029f6:	7003      	strb	r3, [r0, #0]
 80029f8:	2000      	movs	r0, #0
 80029fa:	4770      	bx	lr
 80029fc:	00001111 	.word	0x00001111
 8002a00:	00000444 	.word	0x00000444

08002a04 <TIM_Base_SetConfig>:
 8002a04:	4a1c      	ldr	r2, [pc, #112]	; (8002a78 <TIM_Base_SetConfig+0x74>)
 8002a06:	b510      	push	{r4, lr}
 8002a08:	6803      	ldr	r3, [r0, #0]
 8002a0a:	4290      	cmp	r0, r2
 8002a0c:	d002      	beq.n	8002a14 <TIM_Base_SetConfig+0x10>
 8002a0e:	4c1b      	ldr	r4, [pc, #108]	; (8002a7c <TIM_Base_SetConfig+0x78>)
 8002a10:	42a0      	cmp	r0, r4
 8002a12:	d108      	bne.n	8002a26 <TIM_Base_SetConfig+0x22>
 8002a14:	2470      	movs	r4, #112	; 0x70
 8002a16:	43a3      	bics	r3, r4
 8002a18:	684c      	ldr	r4, [r1, #4]
 8002a1a:	4323      	orrs	r3, r4
 8002a1c:	4290      	cmp	r0, r2
 8002a1e:	d00e      	beq.n	8002a3e <TIM_Base_SetConfig+0x3a>
 8002a20:	4c16      	ldr	r4, [pc, #88]	; (8002a7c <TIM_Base_SetConfig+0x78>)
 8002a22:	42a0      	cmp	r0, r4
 8002a24:	d00b      	beq.n	8002a3e <TIM_Base_SetConfig+0x3a>
 8002a26:	4c16      	ldr	r4, [pc, #88]	; (8002a80 <TIM_Base_SetConfig+0x7c>)
 8002a28:	42a0      	cmp	r0, r4
 8002a2a:	d008      	beq.n	8002a3e <TIM_Base_SetConfig+0x3a>
 8002a2c:	4c15      	ldr	r4, [pc, #84]	; (8002a84 <TIM_Base_SetConfig+0x80>)
 8002a2e:	42a0      	cmp	r0, r4
 8002a30:	d005      	beq.n	8002a3e <TIM_Base_SetConfig+0x3a>
 8002a32:	4c15      	ldr	r4, [pc, #84]	; (8002a88 <TIM_Base_SetConfig+0x84>)
 8002a34:	42a0      	cmp	r0, r4
 8002a36:	d002      	beq.n	8002a3e <TIM_Base_SetConfig+0x3a>
 8002a38:	4c14      	ldr	r4, [pc, #80]	; (8002a8c <TIM_Base_SetConfig+0x88>)
 8002a3a:	42a0      	cmp	r0, r4
 8002a3c:	d103      	bne.n	8002a46 <TIM_Base_SetConfig+0x42>
 8002a3e:	4c14      	ldr	r4, [pc, #80]	; (8002a90 <TIM_Base_SetConfig+0x8c>)
 8002a40:	4023      	ands	r3, r4
 8002a42:	68cc      	ldr	r4, [r1, #12]
 8002a44:	4323      	orrs	r3, r4
 8002a46:	2480      	movs	r4, #128	; 0x80
 8002a48:	43a3      	bics	r3, r4
 8002a4a:	694c      	ldr	r4, [r1, #20]
 8002a4c:	4323      	orrs	r3, r4
 8002a4e:	6003      	str	r3, [r0, #0]
 8002a50:	688b      	ldr	r3, [r1, #8]
 8002a52:	62c3      	str	r3, [r0, #44]	; 0x2c
 8002a54:	680b      	ldr	r3, [r1, #0]
 8002a56:	6283      	str	r3, [r0, #40]	; 0x28
 8002a58:	4290      	cmp	r0, r2
 8002a5a:	d008      	beq.n	8002a6e <TIM_Base_SetConfig+0x6a>
 8002a5c:	4b09      	ldr	r3, [pc, #36]	; (8002a84 <TIM_Base_SetConfig+0x80>)
 8002a5e:	4298      	cmp	r0, r3
 8002a60:	d005      	beq.n	8002a6e <TIM_Base_SetConfig+0x6a>
 8002a62:	4b09      	ldr	r3, [pc, #36]	; (8002a88 <TIM_Base_SetConfig+0x84>)
 8002a64:	4298      	cmp	r0, r3
 8002a66:	d002      	beq.n	8002a6e <TIM_Base_SetConfig+0x6a>
 8002a68:	4b08      	ldr	r3, [pc, #32]	; (8002a8c <TIM_Base_SetConfig+0x88>)
 8002a6a:	4298      	cmp	r0, r3
 8002a6c:	d101      	bne.n	8002a72 <TIM_Base_SetConfig+0x6e>
 8002a6e:	690b      	ldr	r3, [r1, #16]
 8002a70:	6303      	str	r3, [r0, #48]	; 0x30
 8002a72:	2301      	movs	r3, #1
 8002a74:	6143      	str	r3, [r0, #20]
 8002a76:	bd10      	pop	{r4, pc}
 8002a78:	40012c00 	.word	0x40012c00
 8002a7c:	40000400 	.word	0x40000400
 8002a80:	40002000 	.word	0x40002000
 8002a84:	40014000 	.word	0x40014000
 8002a88:	40014400 	.word	0x40014400
 8002a8c:	40014800 	.word	0x40014800
 8002a90:	fffffcff 	.word	0xfffffcff

08002a94 <HAL_TIM_Base_Init>:
 8002a94:	b570      	push	{r4, r5, r6, lr}
 8002a96:	0004      	movs	r4, r0
 8002a98:	2001      	movs	r0, #1
 8002a9a:	2c00      	cmp	r4, #0
 8002a9c:	d021      	beq.n	8002ae2 <HAL_TIM_Base_Init+0x4e>
 8002a9e:	0025      	movs	r5, r4
 8002aa0:	353d      	adds	r5, #61	; 0x3d
 8002aa2:	782b      	ldrb	r3, [r5, #0]
 8002aa4:	b2da      	uxtb	r2, r3
 8002aa6:	2b00      	cmp	r3, #0
 8002aa8:	d105      	bne.n	8002ab6 <HAL_TIM_Base_Init+0x22>
 8002aaa:	0023      	movs	r3, r4
 8002aac:	333c      	adds	r3, #60	; 0x3c
 8002aae:	0020      	movs	r0, r4
 8002ab0:	701a      	strb	r2, [r3, #0]
 8002ab2:	f7fe fdf7 	bl	80016a4 <HAL_TIM_Base_MspInit>
 8002ab6:	2302      	movs	r3, #2
 8002ab8:	702b      	strb	r3, [r5, #0]
 8002aba:	6820      	ldr	r0, [r4, #0]
 8002abc:	1d21      	adds	r1, r4, #4
 8002abe:	f7ff ffa1 	bl	8002a04 <TIM_Base_SetConfig>
 8002ac2:	0022      	movs	r2, r4
 8002ac4:	2301      	movs	r3, #1
 8002ac6:	2000      	movs	r0, #0
 8002ac8:	3246      	adds	r2, #70	; 0x46
 8002aca:	7013      	strb	r3, [r2, #0]
 8002acc:	3445      	adds	r4, #69	; 0x45
 8002ace:	3a08      	subs	r2, #8
 8002ad0:	7013      	strb	r3, [r2, #0]
 8002ad2:	7053      	strb	r3, [r2, #1]
 8002ad4:	7093      	strb	r3, [r2, #2]
 8002ad6:	70d3      	strb	r3, [r2, #3]
 8002ad8:	7113      	strb	r3, [r2, #4]
 8002ada:	7153      	strb	r3, [r2, #5]
 8002adc:	7193      	strb	r3, [r2, #6]
 8002ade:	7023      	strb	r3, [r4, #0]
 8002ae0:	702b      	strb	r3, [r5, #0]
 8002ae2:	bd70      	pop	{r4, r5, r6, pc}

08002ae4 <UART_EndRxTransfer>:
 8002ae4:	6803      	ldr	r3, [r0, #0]
 8002ae6:	490b      	ldr	r1, [pc, #44]	; (8002b14 <UART_EndRxTransfer+0x30>)
 8002ae8:	681a      	ldr	r2, [r3, #0]
 8002aea:	400a      	ands	r2, r1
 8002aec:	601a      	str	r2, [r3, #0]
 8002aee:	689a      	ldr	r2, [r3, #8]
 8002af0:	3123      	adds	r1, #35	; 0x23
 8002af2:	31ff      	adds	r1, #255	; 0xff
 8002af4:	438a      	bics	r2, r1
 8002af6:	609a      	str	r2, [r3, #8]
 8002af8:	6e02      	ldr	r2, [r0, #96]	; 0x60
 8002afa:	428a      	cmp	r2, r1
 8002afc:	d103      	bne.n	8002b06 <UART_EndRxTransfer+0x22>
 8002afe:	681a      	ldr	r2, [r3, #0]
 8002b00:	310f      	adds	r1, #15
 8002b02:	438a      	bics	r2, r1
 8002b04:	601a      	str	r2, [r3, #0]
 8002b06:	2320      	movs	r3, #32
 8002b08:	67c3      	str	r3, [r0, #124]	; 0x7c
 8002b0a:	2300      	movs	r3, #0
 8002b0c:	6603      	str	r3, [r0, #96]	; 0x60
 8002b0e:	6643      	str	r3, [r0, #100]	; 0x64
 8002b10:	4770      	bx	lr
 8002b12:	46c0      	nop			; (mov r8, r8)
 8002b14:	fffffedf 	.word	0xfffffedf

08002b18 <HAL_UART_TxCpltCallback>:
 8002b18:	4770      	bx	lr

08002b1a <HAL_UART_ErrorCallback>:
 8002b1a:	4770      	bx	lr

08002b1c <UART_DMAAbortOnError>:
 8002b1c:	6a40      	ldr	r0, [r0, #36]	; 0x24
 8002b1e:	2300      	movs	r3, #0
 8002b20:	0002      	movs	r2, r0
 8002b22:	b510      	push	{r4, lr}
 8002b24:	325a      	adds	r2, #90	; 0x5a
 8002b26:	8013      	strh	r3, [r2, #0]
 8002b28:	3a08      	subs	r2, #8
 8002b2a:	8013      	strh	r3, [r2, #0]
 8002b2c:	f7ff fff5 	bl	8002b1a <HAL_UART_ErrorCallback>
 8002b30:	bd10      	pop	{r4, pc}

08002b32 <HAL_UARTEx_RxEventCallback>:
 8002b32:	4770      	bx	lr

08002b34 <HAL_UART_IRQHandler>:
 8002b34:	b5f8      	push	{r3, r4, r5, r6, r7, lr}
 8002b36:	6803      	ldr	r3, [r0, #0]
 8002b38:	4d7b      	ldr	r5, [pc, #492]	; (8002d28 <HAL_UART_IRQHandler+0x1f4>)
 8002b3a:	69da      	ldr	r2, [r3, #28]
 8002b3c:	0004      	movs	r4, r0
 8002b3e:	6819      	ldr	r1, [r3, #0]
 8002b40:	6898      	ldr	r0, [r3, #8]
 8002b42:	422a      	tst	r2, r5
 8002b44:	d10b      	bne.n	8002b5e <HAL_UART_IRQHandler+0x2a>
 8002b46:	2020      	movs	r0, #32
 8002b48:	4202      	tst	r2, r0
 8002b4a:	d100      	bne.n	8002b4e <HAL_UART_IRQHandler+0x1a>
 8002b4c:	e075      	b.n	8002c3a <HAL_UART_IRQHandler+0x106>
 8002b4e:	4201      	tst	r1, r0
 8002b50:	d100      	bne.n	8002b54 <HAL_UART_IRQHandler+0x20>
 8002b52:	e072      	b.n	8002c3a <HAL_UART_IRQHandler+0x106>
 8002b54:	6e63      	ldr	r3, [r4, #100]	; 0x64
 8002b56:	0020      	movs	r0, r4
 8002b58:	2b00      	cmp	r3, #0
 8002b5a:	d164      	bne.n	8002c26 <HAL_UART_IRQHandler+0xf2>
 8002b5c:	e064      	b.n	8002c28 <HAL_UART_IRQHandler+0xf4>
 8002b5e:	2601      	movs	r6, #1
 8002b60:	4d72      	ldr	r5, [pc, #456]	; (8002d2c <HAL_UART_IRQHandler+0x1f8>)
 8002b62:	4030      	ands	r0, r6
 8002b64:	400d      	ands	r5, r1
 8002b66:	4305      	orrs	r5, r0
 8002b68:	d067      	beq.n	8002c3a <HAL_UART_IRQHandler+0x106>
 8002b6a:	1d25      	adds	r5, r4, #4
 8002b6c:	4232      	tst	r2, r6
 8002b6e:	d005      	beq.n	8002b7c <HAL_UART_IRQHandler+0x48>
 8002b70:	05cf      	lsls	r7, r1, #23
 8002b72:	d503      	bpl.n	8002b7c <HAL_UART_IRQHandler+0x48>
 8002b74:	621e      	str	r6, [r3, #32]
 8002b76:	6fef      	ldr	r7, [r5, #124]	; 0x7c
 8002b78:	433e      	orrs	r6, r7
 8002b7a:	67ee      	str	r6, [r5, #124]	; 0x7c
 8002b7c:	2602      	movs	r6, #2
 8002b7e:	4232      	tst	r2, r6
 8002b80:	d006      	beq.n	8002b90 <HAL_UART_IRQHandler+0x5c>
 8002b82:	2800      	cmp	r0, #0
 8002b84:	d004      	beq.n	8002b90 <HAL_UART_IRQHandler+0x5c>
 8002b86:	621e      	str	r6, [r3, #32]
 8002b88:	6fef      	ldr	r7, [r5, #124]	; 0x7c
 8002b8a:	19b6      	adds	r6, r6, r6
 8002b8c:	433e      	orrs	r6, r7
 8002b8e:	67ee      	str	r6, [r5, #124]	; 0x7c
 8002b90:	2604      	movs	r6, #4
 8002b92:	4232      	tst	r2, r6
 8002b94:	d006      	beq.n	8002ba4 <HAL_UART_IRQHandler+0x70>
 8002b96:	2800      	cmp	r0, #0
 8002b98:	d004      	beq.n	8002ba4 <HAL_UART_IRQHandler+0x70>
 8002b9a:	621e      	str	r6, [r3, #32]
 8002b9c:	6fef      	ldr	r7, [r5, #124]	; 0x7c
 8002b9e:	3e02      	subs	r6, #2
 8002ba0:	433e      	orrs	r6, r7
 8002ba2:	67ee      	str	r6, [r5, #124]	; 0x7c
 8002ba4:	2608      	movs	r6, #8
 8002ba6:	4232      	tst	r2, r6
 8002ba8:	d007      	beq.n	8002bba <HAL_UART_IRQHandler+0x86>
 8002baa:	2720      	movs	r7, #32
 8002bac:	400f      	ands	r7, r1
 8002bae:	4338      	orrs	r0, r7
 8002bb0:	d003      	beq.n	8002bba <HAL_UART_IRQHandler+0x86>
 8002bb2:	621e      	str	r6, [r3, #32]
 8002bb4:	6fe8      	ldr	r0, [r5, #124]	; 0x7c
 8002bb6:	4306      	orrs	r6, r0
 8002bb8:	67ee      	str	r6, [r5, #124]	; 0x7c
 8002bba:	2080      	movs	r0, #128	; 0x80
 8002bbc:	0100      	lsls	r0, r0, #4
 8002bbe:	4202      	tst	r2, r0
 8002bc0:	d006      	beq.n	8002bd0 <HAL_UART_IRQHandler+0x9c>
 8002bc2:	014e      	lsls	r6, r1, #5
 8002bc4:	d504      	bpl.n	8002bd0 <HAL_UART_IRQHandler+0x9c>
 8002bc6:	6218      	str	r0, [r3, #32]
 8002bc8:	2320      	movs	r3, #32
 8002bca:	6fe8      	ldr	r0, [r5, #124]	; 0x7c
 8002bcc:	4303      	orrs	r3, r0
 8002bce:	67eb      	str	r3, [r5, #124]	; 0x7c
 8002bd0:	6feb      	ldr	r3, [r5, #124]	; 0x7c
 8002bd2:	2b00      	cmp	r3, #0
 8002bd4:	d028      	beq.n	8002c28 <HAL_UART_IRQHandler+0xf4>
 8002bd6:	2320      	movs	r3, #32
 8002bd8:	421a      	tst	r2, r3
 8002bda:	d006      	beq.n	8002bea <HAL_UART_IRQHandler+0xb6>
 8002bdc:	4219      	tst	r1, r3
 8002bde:	d004      	beq.n	8002bea <HAL_UART_IRQHandler+0xb6>
 8002be0:	6e63      	ldr	r3, [r4, #100]	; 0x64
 8002be2:	2b00      	cmp	r3, #0
 8002be4:	d001      	beq.n	8002bea <HAL_UART_IRQHandler+0xb6>
 8002be6:	0020      	movs	r0, r4
 8002be8:	4798      	blx	r3
 8002bea:	6822      	ldr	r2, [r4, #0]
 8002bec:	6feb      	ldr	r3, [r5, #124]	; 0x7c
 8002bee:	2740      	movs	r7, #64	; 0x40
 8002bf0:	6896      	ldr	r6, [r2, #8]
 8002bf2:	2228      	movs	r2, #40	; 0x28
 8002bf4:	403e      	ands	r6, r7
 8002bf6:	4013      	ands	r3, r2
 8002bf8:	0020      	movs	r0, r4
 8002bfa:	431e      	orrs	r6, r3
 8002bfc:	d019      	beq.n	8002c32 <HAL_UART_IRQHandler+0xfe>
 8002bfe:	f7ff ff71 	bl	8002ae4 <UART_EndRxTransfer>
 8002c02:	6823      	ldr	r3, [r4, #0]
 8002c04:	689a      	ldr	r2, [r3, #8]
 8002c06:	423a      	tst	r2, r7
 8002c08:	d00f      	beq.n	8002c2a <HAL_UART_IRQHandler+0xf6>
 8002c0a:	689a      	ldr	r2, [r3, #8]
 8002c0c:	6f20      	ldr	r0, [r4, #112]	; 0x70
 8002c0e:	43ba      	bics	r2, r7
 8002c10:	609a      	str	r2, [r3, #8]
 8002c12:	2800      	cmp	r0, #0
 8002c14:	d009      	beq.n	8002c2a <HAL_UART_IRQHandler+0xf6>
 8002c16:	4b46      	ldr	r3, [pc, #280]	; (8002d30 <HAL_UART_IRQHandler+0x1fc>)
 8002c18:	6343      	str	r3, [r0, #52]	; 0x34
 8002c1a:	f7fe feb9 	bl	8001990 <HAL_DMA_Abort_IT>
 8002c1e:	2800      	cmp	r0, #0
 8002c20:	d002      	beq.n	8002c28 <HAL_UART_IRQHandler+0xf4>
 8002c22:	6f20      	ldr	r0, [r4, #112]	; 0x70
 8002c24:	6b43      	ldr	r3, [r0, #52]	; 0x34
 8002c26:	4798      	blx	r3
 8002c28:	bdf8      	pop	{r3, r4, r5, r6, r7, pc}
 8002c2a:	0020      	movs	r0, r4
 8002c2c:	f7ff ff75 	bl	8002b1a <HAL_UART_ErrorCallback>
 8002c30:	e7fa      	b.n	8002c28 <HAL_UART_IRQHandler+0xf4>
 8002c32:	f7ff ff72 	bl	8002b1a <HAL_UART_ErrorCallback>
 8002c36:	67ee      	str	r6, [r5, #124]	; 0x7c
 8002c38:	e7f6      	b.n	8002c28 <HAL_UART_IRQHandler+0xf4>
 8002c3a:	6e27      	ldr	r7, [r4, #96]	; 0x60
 8002c3c:	2f01      	cmp	r7, #1
 8002c3e:	d15a      	bne.n	8002cf6 <HAL_UART_IRQHandler+0x1c2>
 8002c40:	2510      	movs	r5, #16
 8002c42:	422a      	tst	r2, r5
 8002c44:	d057      	beq.n	8002cf6 <HAL_UART_IRQHandler+0x1c2>
 8002c46:	4229      	tst	r1, r5
 8002c48:	d055      	beq.n	8002cf6 <HAL_UART_IRQHandler+0x1c2>
 8002c4a:	621d      	str	r5, [r3, #32]
 8002c4c:	689a      	ldr	r2, [r3, #8]
 8002c4e:	2140      	movs	r1, #64	; 0x40
 8002c50:	0010      	movs	r0, r2
 8002c52:	4008      	ands	r0, r1
 8002c54:	420a      	tst	r2, r1
 8002c56:	d031      	beq.n	8002cbc <HAL_UART_IRQHandler+0x188>
 8002c58:	6f20      	ldr	r0, [r4, #112]	; 0x70
 8002c5a:	6802      	ldr	r2, [r0, #0]
 8002c5c:	6852      	ldr	r2, [r2, #4]
 8002c5e:	b292      	uxth	r2, r2
 8002c60:	2a00      	cmp	r2, #0
 8002c62:	d0e1      	beq.n	8002c28 <HAL_UART_IRQHandler+0xf4>
 8002c64:	0026      	movs	r6, r4
 8002c66:	3658      	adds	r6, #88	; 0x58
 8002c68:	8831      	ldrh	r1, [r6, #0]
 8002c6a:	4291      	cmp	r1, r2
 8002c6c:	d9dc      	bls.n	8002c28 <HAL_UART_IRQHandler+0xf4>
 8002c6e:	215a      	movs	r1, #90	; 0x5a
 8002c70:	468c      	mov	ip, r1
 8002c72:	44a4      	add	ip, r4
 8002c74:	4661      	mov	r1, ip
 8002c76:	800a      	strh	r2, [r1, #0]
 8002c78:	6982      	ldr	r2, [r0, #24]
 8002c7a:	2a20      	cmp	r2, #32
 8002c7c:	d014      	beq.n	8002ca8 <HAL_UART_IRQHandler+0x174>
 8002c7e:	681a      	ldr	r2, [r3, #0]
 8002c80:	492c      	ldr	r1, [pc, #176]	; (8002d34 <HAL_UART_IRQHandler+0x200>)
 8002c82:	400a      	ands	r2, r1
 8002c84:	601a      	str	r2, [r3, #0]
 8002c86:	689a      	ldr	r2, [r3, #8]
 8002c88:	3142      	adds	r1, #66	; 0x42
 8002c8a:	43ba      	bics	r2, r7
 8002c8c:	609a      	str	r2, [r3, #8]
 8002c8e:	689a      	ldr	r2, [r3, #8]
 8002c90:	31ff      	adds	r1, #255	; 0xff
 8002c92:	438a      	bics	r2, r1
 8002c94:	609a      	str	r2, [r3, #8]
 8002c96:	2220      	movs	r2, #32
 8002c98:	67e2      	str	r2, [r4, #124]	; 0x7c
 8002c9a:	2200      	movs	r2, #0
 8002c9c:	6622      	str	r2, [r4, #96]	; 0x60
 8002c9e:	681a      	ldr	r2, [r3, #0]
 8002ca0:	43aa      	bics	r2, r5
 8002ca2:	601a      	str	r2, [r3, #0]
 8002ca4:	f7fe fe56 	bl	8001954 <HAL_DMA_Abort>
 8002ca8:	0023      	movs	r3, r4
 8002caa:	335a      	adds	r3, #90	; 0x5a
 8002cac:	881b      	ldrh	r3, [r3, #0]
 8002cae:	8831      	ldrh	r1, [r6, #0]
 8002cb0:	1ac9      	subs	r1, r1, r3
 8002cb2:	b289      	uxth	r1, r1
 8002cb4:	0020      	movs	r0, r4
 8002cb6:	f7ff ff3c 	bl	8002b32 <HAL_UARTEx_RxEventCallback>
 8002cba:	e7b5      	b.n	8002c28 <HAL_UART_IRQHandler+0xf4>
 8002cbc:	0026      	movs	r6, r4
 8002cbe:	365a      	adds	r6, #90	; 0x5a
 8002cc0:	8832      	ldrh	r2, [r6, #0]
 8002cc2:	8831      	ldrh	r1, [r6, #0]
 8002cc4:	b292      	uxth	r2, r2
 8002cc6:	2900      	cmp	r1, #0
 8002cc8:	d0ae      	beq.n	8002c28 <HAL_UART_IRQHandler+0xf4>
 8002cca:	0021      	movs	r1, r4
 8002ccc:	3158      	adds	r1, #88	; 0x58
 8002cce:	8809      	ldrh	r1, [r1, #0]
 8002cd0:	1a89      	subs	r1, r1, r2
 8002cd2:	b289      	uxth	r1, r1
 8002cd4:	2900      	cmp	r1, #0
 8002cd6:	d0a7      	beq.n	8002c28 <HAL_UART_IRQHandler+0xf4>
 8002cd8:	681a      	ldr	r2, [r3, #0]
 8002cda:	4e17      	ldr	r6, [pc, #92]	; (8002d38 <HAL_UART_IRQHandler+0x204>)
 8002cdc:	4032      	ands	r2, r6
 8002cde:	601a      	str	r2, [r3, #0]
 8002ce0:	689a      	ldr	r2, [r3, #8]
 8002ce2:	43ba      	bics	r2, r7
 8002ce4:	609a      	str	r2, [r3, #8]
 8002ce6:	2220      	movs	r2, #32
 8002ce8:	67e2      	str	r2, [r4, #124]	; 0x7c
 8002cea:	6620      	str	r0, [r4, #96]	; 0x60
 8002cec:	681a      	ldr	r2, [r3, #0]
 8002cee:	6660      	str	r0, [r4, #100]	; 0x64
 8002cf0:	43aa      	bics	r2, r5
 8002cf2:	601a      	str	r2, [r3, #0]
 8002cf4:	e7de      	b.n	8002cb4 <HAL_UART_IRQHandler+0x180>
 8002cf6:	2080      	movs	r0, #128	; 0x80
 8002cf8:	4202      	tst	r2, r0
 8002cfa:	d003      	beq.n	8002d04 <HAL_UART_IRQHandler+0x1d0>
 8002cfc:	4201      	tst	r1, r0
 8002cfe:	d001      	beq.n	8002d04 <HAL_UART_IRQHandler+0x1d0>
 8002d00:	6ea3      	ldr	r3, [r4, #104]	; 0x68
 8002d02:	e728      	b.n	8002b56 <HAL_UART_IRQHandler+0x22>
 8002d04:	2040      	movs	r0, #64	; 0x40
 8002d06:	4202      	tst	r2, r0
 8002d08:	d100      	bne.n	8002d0c <HAL_UART_IRQHandler+0x1d8>
 8002d0a:	e78d      	b.n	8002c28 <HAL_UART_IRQHandler+0xf4>
 8002d0c:	4201      	tst	r1, r0
 8002d0e:	d100      	bne.n	8002d12 <HAL_UART_IRQHandler+0x1de>
 8002d10:	e78a      	b.n	8002c28 <HAL_UART_IRQHandler+0xf4>
 8002d12:	681a      	ldr	r2, [r3, #0]
 8002d14:	4382      	bics	r2, r0
 8002d16:	601a      	str	r2, [r3, #0]
 8002d18:	2320      	movs	r3, #32
 8002d1a:	67a3      	str	r3, [r4, #120]	; 0x78
 8002d1c:	2300      	movs	r3, #0
 8002d1e:	0020      	movs	r0, r4
 8002d20:	66a3      	str	r3, [r4, #104]	; 0x68
 8002d22:	f7ff fef9 	bl	8002b18 <HAL_UART_TxCpltCallback>
 8002d26:	e77f      	b.n	8002c28 <HAL_UART_IRQHandler+0xf4>
 8002d28:	0000080f 	.word	0x0000080f
 8002d2c:	04000120 	.word	0x04000120
 8002d30:	08002b1d 	.word	0x08002b1d
 8002d34:	fffffeff 	.word	0xfffffeff
 8002d38:	fffffedf 	.word	0xfffffedf

08002d3c <UART_SetConfig>:
 8002d3c:	b570      	push	{r4, r5, r6, lr}
 8002d3e:	0004      	movs	r4, r0
 8002d40:	6925      	ldr	r5, [r4, #16]
 8002d42:	68a2      	ldr	r2, [r4, #8]
 8002d44:	6801      	ldr	r1, [r0, #0]
 8002d46:	432a      	orrs	r2, r5
 8002d48:	6965      	ldr	r5, [r4, #20]
 8002d4a:	69c3      	ldr	r3, [r0, #28]
 8002d4c:	432a      	orrs	r2, r5
 8002d4e:	6808      	ldr	r0, [r1, #0]
 8002d50:	4d3e      	ldr	r5, [pc, #248]	; (8002e4c <UART_SetConfig+0x110>)
 8002d52:	431a      	orrs	r2, r3
 8002d54:	4028      	ands	r0, r5
 8002d56:	4302      	orrs	r2, r0
 8002d58:	600a      	str	r2, [r1, #0]
 8002d5a:	684a      	ldr	r2, [r1, #4]
 8002d5c:	483c      	ldr	r0, [pc, #240]	; (8002e50 <UART_SetConfig+0x114>)
 8002d5e:	6a25      	ldr	r5, [r4, #32]
 8002d60:	4002      	ands	r2, r0
 8002d62:	68e0      	ldr	r0, [r4, #12]
 8002d64:	4302      	orrs	r2, r0
 8002d66:	604a      	str	r2, [r1, #4]
 8002d68:	69a2      	ldr	r2, [r4, #24]
 8002d6a:	6888      	ldr	r0, [r1, #8]
 8002d6c:	432a      	orrs	r2, r5
 8002d6e:	4d39      	ldr	r5, [pc, #228]	; (8002e54 <UART_SetConfig+0x118>)
 8002d70:	4028      	ands	r0, r5
 8002d72:	4302      	orrs	r2, r0
 8002d74:	608a      	str	r2, [r1, #8]
 8002d76:	4a38      	ldr	r2, [pc, #224]	; (8002e58 <UART_SetConfig+0x11c>)
 8002d78:	4291      	cmp	r1, r2
 8002d7a:	d115      	bne.n	8002da8 <UART_SetConfig+0x6c>
 8002d7c:	2103      	movs	r1, #3
 8002d7e:	4a37      	ldr	r2, [pc, #220]	; (8002e5c <UART_SetConfig+0x120>)
 8002d80:	6b12      	ldr	r2, [r2, #48]	; 0x30
 8002d82:	400a      	ands	r2, r1
 8002d84:	2180      	movs	r1, #128	; 0x80
 8002d86:	3a01      	subs	r2, #1
 8002d88:	0209      	lsls	r1, r1, #8
 8002d8a:	2a02      	cmp	r2, #2
 8002d8c:	d853      	bhi.n	8002e36 <UART_SetConfig+0xfa>
 8002d8e:	4834      	ldr	r0, [pc, #208]	; (8002e60 <UART_SetConfig+0x124>)
 8002d90:	5c80      	ldrb	r0, [r0, r2]
 8002d92:	428b      	cmp	r3, r1
 8002d94:	d014      	beq.n	8002dc0 <UART_SetConfig+0x84>
 8002d96:	2808      	cmp	r0, #8
 8002d98:	d84b      	bhi.n	8002e32 <UART_SetConfig+0xf6>
 8002d9a:	f7fd f9bd 	bl	8000118 <__gnu_thumb1_case_uqi>
 8002d9e:	4a0c      	.short	0x4a0c
 8002da0:	4a454a48 	.word	0x4a454a48
 8002da4:	4a4a      	.short	0x4a4a
 8002da6:	34          	.byte	0x34
 8002da7:	00          	.byte	0x00
 8002da8:	4a2e      	ldr	r2, [pc, #184]	; (8002e64 <UART_SetConfig+0x128>)
 8002daa:	4291      	cmp	r1, r2
 8002dac:	d141      	bne.n	8002e32 <UART_SetConfig+0xf6>
 8002dae:	2280      	movs	r2, #128	; 0x80
 8002db0:	0212      	lsls	r2, r2, #8
 8002db2:	4293      	cmp	r3, r2
 8002db4:	d041      	beq.n	8002e3a <UART_SetConfig+0xfe>
 8002db6:	f7ff fd4f 	bl	8002858 <HAL_RCC_GetPCLK1Freq>
 8002dba:	2800      	cmp	r0, #0
 8002dbc:	d041      	beq.n	8002e42 <UART_SetConfig+0x106>
 8002dbe:	e024      	b.n	8002e0a <UART_SetConfig+0xce>
 8002dc0:	2808      	cmp	r0, #8
 8002dc2:	d836      	bhi.n	8002e32 <UART_SetConfig+0xf6>
 8002dc4:	f7fd f9a8 	bl	8000118 <__gnu_thumb1_case_uqi>
 8002dc8:	35083539 	.word	0x35083539
 8002dcc:	35353505 	.word	0x35353505
 8002dd0:	09          	.byte	0x09
 8002dd1:	00          	.byte	0x00
 8002dd2:	f7ff fc8b 	bl	80026ec <HAL_RCC_GetSysClockFreq>
 8002dd6:	e032      	b.n	8002e3e <UART_SetConfig+0x102>
 8002dd8:	4b23      	ldr	r3, [pc, #140]	; (8002e68 <UART_SetConfig+0x12c>)
 8002dda:	0058      	lsls	r0, r3, #1
 8002ddc:	6863      	ldr	r3, [r4, #4]
 8002dde:	6861      	ldr	r1, [r4, #4]
 8002de0:	085b      	lsrs	r3, r3, #1
 8002de2:	18c0      	adds	r0, r0, r3
 8002de4:	f7fd f9ac 	bl	8000140 <__udivsi3>
 8002de8:	4920      	ldr	r1, [pc, #128]	; (8002e6c <UART_SetConfig+0x130>)
 8002dea:	b282      	uxth	r2, r0
 8002dec:	3a10      	subs	r2, #16
 8002dee:	0403      	lsls	r3, r0, #16
 8002df0:	428a      	cmp	r2, r1
 8002df2:	d81e      	bhi.n	8002e32 <UART_SetConfig+0xf6>
 8002df4:	220f      	movs	r2, #15
 8002df6:	031b      	lsls	r3, r3, #12
 8002df8:	4390      	bics	r0, r2
 8002dfa:	b280      	uxth	r0, r0
 8002dfc:	6822      	ldr	r2, [r4, #0]
 8002dfe:	0f5b      	lsrs	r3, r3, #29
 8002e00:	4318      	orrs	r0, r3
 8002e02:	60d0      	str	r0, [r2, #12]
 8002e04:	e01d      	b.n	8002e42 <UART_SetConfig+0x106>
 8002e06:	2080      	movs	r0, #128	; 0x80
 8002e08:	0200      	lsls	r0, r0, #8
 8002e0a:	6863      	ldr	r3, [r4, #4]
 8002e0c:	6861      	ldr	r1, [r4, #4]
 8002e0e:	085b      	lsrs	r3, r3, #1
 8002e10:	1818      	adds	r0, r3, r0
 8002e12:	f7fd f995 	bl	8000140 <__udivsi3>
 8002e16:	b280      	uxth	r0, r0
 8002e18:	0002      	movs	r2, r0
 8002e1a:	4b14      	ldr	r3, [pc, #80]	; (8002e6c <UART_SetConfig+0x130>)
 8002e1c:	3a10      	subs	r2, #16
 8002e1e:	429a      	cmp	r2, r3
 8002e20:	d807      	bhi.n	8002e32 <UART_SetConfig+0xf6>
 8002e22:	6823      	ldr	r3, [r4, #0]
 8002e24:	60d8      	str	r0, [r3, #12]
 8002e26:	e00c      	b.n	8002e42 <UART_SetConfig+0x106>
 8002e28:	f7ff fc60 	bl	80026ec <HAL_RCC_GetSysClockFreq>
 8002e2c:	e7c5      	b.n	8002dba <UART_SetConfig+0x7e>
 8002e2e:	480e      	ldr	r0, [pc, #56]	; (8002e68 <UART_SetConfig+0x12c>)
 8002e30:	e7eb      	b.n	8002e0a <UART_SetConfig+0xce>
 8002e32:	2001      	movs	r0, #1
 8002e34:	e006      	b.n	8002e44 <UART_SetConfig+0x108>
 8002e36:	428b      	cmp	r3, r1
 8002e38:	d1bd      	bne.n	8002db6 <UART_SetConfig+0x7a>
 8002e3a:	f7ff fd0d 	bl	8002858 <HAL_RCC_GetPCLK1Freq>
 8002e3e:	1e03      	subs	r3, r0, #0
 8002e40:	d1cb      	bne.n	8002dda <UART_SetConfig+0x9e>
 8002e42:	2000      	movs	r0, #0
 8002e44:	2300      	movs	r3, #0
 8002e46:	6663      	str	r3, [r4, #100]	; 0x64
 8002e48:	66a3      	str	r3, [r4, #104]	; 0x68
 8002e4a:	bd70      	pop	{r4, r5, r6, pc}
 8002e4c:	ffff69f3 	.word	0xffff69f3
 8002e50:	ffffcfff 	.word	0xffffcfff
 8002e54:	fffff4ff 	.word	0xfffff4ff
 8002e58:	40013800 	.word	0x40013800
 8002e5c:	40021000 	.word	0x40021000
 8002e60:	08004a74 	.word	0x08004a74
 8002e64:	40004400 	.word	0x40004400
 8002e68:	007a1200 	.word	0x007a1200
 8002e6c:	0000ffef 	.word	0x0000ffef

08002e70 <UART_AdvFeatureConfig>:
 8002e70:	6a43      	ldr	r3, [r0, #36]	; 0x24
 8002e72:	b530      	push	{r4, r5, lr}
 8002e74:	07da      	lsls	r2, r3, #31
 8002e76:	d506      	bpl.n	8002e86 <UART_AdvFeatureConfig+0x16>
 8002e78:	6801      	ldr	r1, [r0, #0]
 8002e7a:	4c28      	ldr	r4, [pc, #160]	; (8002f1c <UART_AdvFeatureConfig+0xac>)
 8002e7c:	684a      	ldr	r2, [r1, #4]
 8002e7e:	4022      	ands	r2, r4
 8002e80:	6a84      	ldr	r4, [r0, #40]	; 0x28
 8002e82:	4322      	orrs	r2, r4
 8002e84:	604a      	str	r2, [r1, #4]
 8002e86:	079a      	lsls	r2, r3, #30
 8002e88:	d506      	bpl.n	8002e98 <UART_AdvFeatureConfig+0x28>
 8002e8a:	6801      	ldr	r1, [r0, #0]
 8002e8c:	4c24      	ldr	r4, [pc, #144]	; (8002f20 <UART_AdvFeatureConfig+0xb0>)
 8002e8e:	684a      	ldr	r2, [r1, #4]
 8002e90:	4022      	ands	r2, r4
 8002e92:	6ac4      	ldr	r4, [r0, #44]	; 0x2c
 8002e94:	4322      	orrs	r2, r4
 8002e96:	604a      	str	r2, [r1, #4]
 8002e98:	075a      	lsls	r2, r3, #29
 8002e9a:	d506      	bpl.n	8002eaa <UART_AdvFeatureConfig+0x3a>
 8002e9c:	6801      	ldr	r1, [r0, #0]
 8002e9e:	4c21      	ldr	r4, [pc, #132]	; (8002f24 <UART_AdvFeatureConfig+0xb4>)
 8002ea0:	684a      	ldr	r2, [r1, #4]
 8002ea2:	4022      	ands	r2, r4
 8002ea4:	6b04      	ldr	r4, [r0, #48]	; 0x30
 8002ea6:	4322      	orrs	r2, r4
 8002ea8:	604a      	str	r2, [r1, #4]
 8002eaa:	071a      	lsls	r2, r3, #28
 8002eac:	d506      	bpl.n	8002ebc <UART_AdvFeatureConfig+0x4c>
 8002eae:	6801      	ldr	r1, [r0, #0]
 8002eb0:	4c1d      	ldr	r4, [pc, #116]	; (8002f28 <UART_AdvFeatureConfig+0xb8>)
 8002eb2:	684a      	ldr	r2, [r1, #4]
 8002eb4:	4022      	ands	r2, r4
 8002eb6:	6b44      	ldr	r4, [r0, #52]	; 0x34
 8002eb8:	4322      	orrs	r2, r4
 8002eba:	604a      	str	r2, [r1, #4]
 8002ebc:	06da      	lsls	r2, r3, #27
 8002ebe:	d506      	bpl.n	8002ece <UART_AdvFeatureConfig+0x5e>
 8002ec0:	6801      	ldr	r1, [r0, #0]
 8002ec2:	4c1a      	ldr	r4, [pc, #104]	; (8002f2c <UART_AdvFeatureConfig+0xbc>)
 8002ec4:	688a      	ldr	r2, [r1, #8]
 8002ec6:	4022      	ands	r2, r4
 8002ec8:	6b84      	ldr	r4, [r0, #56]	; 0x38
 8002eca:	4322      	orrs	r2, r4
 8002ecc:	608a      	str	r2, [r1, #8]
 8002ece:	069a      	lsls	r2, r3, #26
 8002ed0:	d506      	bpl.n	8002ee0 <UART_AdvFeatureConfig+0x70>
 8002ed2:	6801      	ldr	r1, [r0, #0]
 8002ed4:	4c16      	ldr	r4, [pc, #88]	; (8002f30 <UART_AdvFeatureConfig+0xc0>)
 8002ed6:	688a      	ldr	r2, [r1, #8]
 8002ed8:	4022      	ands	r2, r4
 8002eda:	6bc4      	ldr	r4, [r0, #60]	; 0x3c
 8002edc:	4322      	orrs	r2, r4
 8002ede:	608a      	str	r2, [r1, #8]
 8002ee0:	065a      	lsls	r2, r3, #25
 8002ee2:	d510      	bpl.n	8002f06 <UART_AdvFeatureConfig+0x96>
 8002ee4:	6801      	ldr	r1, [r0, #0]
 8002ee6:	4d13      	ldr	r5, [pc, #76]	; (8002f34 <UART_AdvFeatureConfig+0xc4>)
 8002ee8:	684a      	ldr	r2, [r1, #4]
 8002eea:	6c04      	ldr	r4, [r0, #64]	; 0x40
 8002eec:	402a      	ands	r2, r5
 8002eee:	4322      	orrs	r2, r4
 8002ef0:	604a      	str	r2, [r1, #4]
 8002ef2:	2280      	movs	r2, #128	; 0x80
 8002ef4:	0352      	lsls	r2, r2, #13
 8002ef6:	4294      	cmp	r4, r2
 8002ef8:	d105      	bne.n	8002f06 <UART_AdvFeatureConfig+0x96>
 8002efa:	684a      	ldr	r2, [r1, #4]
 8002efc:	4c0e      	ldr	r4, [pc, #56]	; (8002f38 <UART_AdvFeatureConfig+0xc8>)
 8002efe:	4022      	ands	r2, r4
 8002f00:	6c44      	ldr	r4, [r0, #68]	; 0x44
 8002f02:	4322      	orrs	r2, r4
 8002f04:	604a      	str	r2, [r1, #4]
 8002f06:	061b      	lsls	r3, r3, #24
 8002f08:	d506      	bpl.n	8002f18 <UART_AdvFeatureConfig+0xa8>
 8002f0a:	6802      	ldr	r2, [r0, #0]
 8002f0c:	490b      	ldr	r1, [pc, #44]	; (8002f3c <UART_AdvFeatureConfig+0xcc>)
 8002f0e:	6853      	ldr	r3, [r2, #4]
 8002f10:	400b      	ands	r3, r1
 8002f12:	6c81      	ldr	r1, [r0, #72]	; 0x48
 8002f14:	430b      	orrs	r3, r1
 8002f16:	6053      	str	r3, [r2, #4]
 8002f18:	bd30      	pop	{r4, r5, pc}
 8002f1a:	46c0      	nop			; (mov r8, r8)
 8002f1c:	fffdffff 	.word	0xfffdffff
 8002f20:	fffeffff 	.word	0xfffeffff
 8002f24:	fffbffff 	.word	0xfffbffff
 8002f28:	ffff7fff 	.word	0xffff7fff
 8002f2c:	ffffefff 	.word	0xffffefff
 8002f30:	ffffdfff 	.word	0xffffdfff
 8002f34:	ffefffff 	.word	0xffefffff
 8002f38:	ff9fffff 	.word	0xff9fffff
 8002f3c:	fff7ffff 	.word	0xfff7ffff

08002f40 <UART_WaitOnFlagUntilTimeout>:
 8002f40:	b5f7      	push	{r0, r1, r2, r4, r5, r6, r7, lr}
 8002f42:	2780      	movs	r7, #128	; 0x80
 8002f44:	0004      	movs	r4, r0
 8002f46:	000d      	movs	r5, r1
 8002f48:	0016      	movs	r6, r2
 8002f4a:	9301      	str	r3, [sp, #4]
 8002f4c:	013f      	lsls	r7, r7, #4
 8002f4e:	6822      	ldr	r2, [r4, #0]
 8002f50:	69d3      	ldr	r3, [r2, #28]
 8002f52:	402b      	ands	r3, r5
 8002f54:	1b5b      	subs	r3, r3, r5
 8002f56:	4259      	negs	r1, r3
 8002f58:	414b      	adcs	r3, r1
 8002f5a:	42b3      	cmp	r3, r6
 8002f5c:	d001      	beq.n	8002f62 <UART_WaitOnFlagUntilTimeout+0x22>
 8002f5e:	2000      	movs	r0, #0
 8002f60:	e01c      	b.n	8002f9c <UART_WaitOnFlagUntilTimeout+0x5c>
 8002f62:	9b08      	ldr	r3, [sp, #32]
 8002f64:	3301      	adds	r3, #1
 8002f66:	d0f3      	beq.n	8002f50 <UART_WaitOnFlagUntilTimeout+0x10>
 8002f68:	f7fe fc8c 	bl	8001884 <HAL_GetTick>
 8002f6c:	9b01      	ldr	r3, [sp, #4]
 8002f6e:	9a08      	ldr	r2, [sp, #32]
 8002f70:	1ac0      	subs	r0, r0, r3
 8002f72:	6823      	ldr	r3, [r4, #0]
 8002f74:	4290      	cmp	r0, r2
 8002f76:	d801      	bhi.n	8002f7c <UART_WaitOnFlagUntilTimeout+0x3c>
 8002f78:	2a00      	cmp	r2, #0
 8002f7a:	d110      	bne.n	8002f9e <UART_WaitOnFlagUntilTimeout+0x5e>
 8002f7c:	681a      	ldr	r2, [r3, #0]
 8002f7e:	4913      	ldr	r1, [pc, #76]	; (8002fcc <UART_WaitOnFlagUntilTimeout+0x8c>)
 8002f80:	400a      	ands	r2, r1
 8002f82:	601a      	str	r2, [r3, #0]
 8002f84:	689a      	ldr	r2, [r3, #8]
 8002f86:	31a3      	adds	r1, #163	; 0xa3
 8002f88:	31ff      	adds	r1, #255	; 0xff
 8002f8a:	438a      	bics	r2, r1
 8002f8c:	609a      	str	r2, [r3, #8]
 8002f8e:	2320      	movs	r3, #32
 8002f90:	67a3      	str	r3, [r4, #120]	; 0x78
 8002f92:	67e3      	str	r3, [r4, #124]	; 0x7c
 8002f94:	2300      	movs	r3, #0
 8002f96:	2003      	movs	r0, #3
 8002f98:	3474      	adds	r4, #116	; 0x74
 8002f9a:	7023      	strb	r3, [r4, #0]
 8002f9c:	bdfe      	pop	{r1, r2, r3, r4, r5, r6, r7, pc}
 8002f9e:	2104      	movs	r1, #4
 8002fa0:	681a      	ldr	r2, [r3, #0]
 8002fa2:	420a      	tst	r2, r1
 8002fa4:	d0d3      	beq.n	8002f4e <UART_WaitOnFlagUntilTimeout+0xe>
 8002fa6:	69da      	ldr	r2, [r3, #28]
 8002fa8:	423a      	tst	r2, r7
 8002faa:	d0d0      	beq.n	8002f4e <UART_WaitOnFlagUntilTimeout+0xe>
 8002fac:	621f      	str	r7, [r3, #32]
 8002fae:	681a      	ldr	r2, [r3, #0]
 8002fb0:	4906      	ldr	r1, [pc, #24]	; (8002fcc <UART_WaitOnFlagUntilTimeout+0x8c>)
 8002fb2:	400a      	ands	r2, r1
 8002fb4:	601a      	str	r2, [r3, #0]
 8002fb6:	689a      	ldr	r2, [r3, #8]
 8002fb8:	31a3      	adds	r1, #163	; 0xa3
 8002fba:	31ff      	adds	r1, #255	; 0xff
 8002fbc:	438a      	bics	r2, r1
 8002fbe:	609a      	str	r2, [r3, #8]
 8002fc0:	2320      	movs	r3, #32
 8002fc2:	1d22      	adds	r2, r4, #4
 8002fc4:	67a3      	str	r3, [r4, #120]	; 0x78
 8002fc6:	67e3      	str	r3, [r4, #124]	; 0x7c
 8002fc8:	67d3      	str	r3, [r2, #124]	; 0x7c
 8002fca:	e7e3      	b.n	8002f94 <UART_WaitOnFlagUntilTimeout+0x54>
 8002fcc:	fffffe5f 	.word	0xfffffe5f

08002fd0 <HAL_UART_Transmit>:
 8002fd0:	b5f0      	push	{r4, r5, r6, r7, lr}
 8002fd2:	b087      	sub	sp, #28
 8002fd4:	9305      	str	r3, [sp, #20]
 8002fd6:	6f83      	ldr	r3, [r0, #120]	; 0x78
 8002fd8:	0004      	movs	r4, r0
 8002fda:	000d      	movs	r5, r1
 8002fdc:	0016      	movs	r6, r2
 8002fde:	2002      	movs	r0, #2
 8002fe0:	2b20      	cmp	r3, #32
 8002fe2:	d151      	bne.n	8003088 <HAL_UART_Transmit+0xb8>
 8002fe4:	3801      	subs	r0, #1
 8002fe6:	2900      	cmp	r1, #0
 8002fe8:	d04e      	beq.n	8003088 <HAL_UART_Transmit+0xb8>
 8002fea:	2a00      	cmp	r2, #0
 8002fec:	d04c      	beq.n	8003088 <HAL_UART_Transmit+0xb8>
 8002fee:	2380      	movs	r3, #128	; 0x80
 8002ff0:	68a2      	ldr	r2, [r4, #8]
 8002ff2:	015b      	lsls	r3, r3, #5
 8002ff4:	429a      	cmp	r2, r3
 8002ff6:	d104      	bne.n	8003002 <HAL_UART_Transmit+0x32>
 8002ff8:	6923      	ldr	r3, [r4, #16]
 8002ffa:	2b00      	cmp	r3, #0
 8002ffc:	d101      	bne.n	8003002 <HAL_UART_Transmit+0x32>
 8002ffe:	4201      	tst	r1, r0
 8003000:	d142      	bne.n	8003088 <HAL_UART_Transmit+0xb8>
 8003002:	0023      	movs	r3, r4
 8003004:	3374      	adds	r3, #116	; 0x74
 8003006:	9303      	str	r3, [sp, #12]
 8003008:	781b      	ldrb	r3, [r3, #0]
 800300a:	2002      	movs	r0, #2
 800300c:	2b01      	cmp	r3, #1
 800300e:	d03b      	beq.n	8003088 <HAL_UART_Transmit+0xb8>
 8003010:	2301      	movs	r3, #1
 8003012:	9a03      	ldr	r2, [sp, #12]
 8003014:	7013      	strb	r3, [r2, #0]
 8003016:	2200      	movs	r2, #0
 8003018:	1d23      	adds	r3, r4, #4
 800301a:	67da      	str	r2, [r3, #124]	; 0x7c
 800301c:	2321      	movs	r3, #33	; 0x21
 800301e:	67a3      	str	r3, [r4, #120]	; 0x78
 8003020:	f7fe fc30 	bl	8001884 <HAL_GetTick>
 8003024:	0023      	movs	r3, r4
 8003026:	3350      	adds	r3, #80	; 0x50
 8003028:	801e      	strh	r6, [r3, #0]
 800302a:	3302      	adds	r3, #2
 800302c:	801e      	strh	r6, [r3, #0]
 800302e:	9304      	str	r3, [sp, #16]
 8003030:	2380      	movs	r3, #128	; 0x80
 8003032:	68a2      	ldr	r2, [r4, #8]
 8003034:	0007      	movs	r7, r0
 8003036:	2600      	movs	r6, #0
 8003038:	015b      	lsls	r3, r3, #5
 800303a:	429a      	cmp	r2, r3
 800303c:	d104      	bne.n	8003048 <HAL_UART_Transmit+0x78>
 800303e:	6923      	ldr	r3, [r4, #16]
 8003040:	42b3      	cmp	r3, r6
 8003042:	d101      	bne.n	8003048 <HAL_UART_Transmit+0x78>
 8003044:	002e      	movs	r6, r5
 8003046:	001d      	movs	r5, r3
 8003048:	2300      	movs	r3, #0
 800304a:	9a03      	ldr	r2, [sp, #12]
 800304c:	7013      	strb	r3, [r2, #0]
 800304e:	0023      	movs	r3, r4
 8003050:	3352      	adds	r3, #82	; 0x52
 8003052:	881b      	ldrh	r3, [r3, #0]
 8003054:	b29a      	uxth	r2, r3
 8003056:	2b00      	cmp	r3, #0
 8003058:	d10b      	bne.n	8003072 <HAL_UART_Transmit+0xa2>
 800305a:	9b05      	ldr	r3, [sp, #20]
 800305c:	2140      	movs	r1, #64	; 0x40
 800305e:	9300      	str	r3, [sp, #0]
 8003060:	0020      	movs	r0, r4
 8003062:	003b      	movs	r3, r7
 8003064:	f7ff ff6c 	bl	8002f40 <UART_WaitOnFlagUntilTimeout>
 8003068:	2800      	cmp	r0, #0
 800306a:	d10c      	bne.n	8003086 <HAL_UART_Transmit+0xb6>
 800306c:	2320      	movs	r3, #32
 800306e:	67a3      	str	r3, [r4, #120]	; 0x78
 8003070:	e00a      	b.n	8003088 <HAL_UART_Transmit+0xb8>
 8003072:	9b05      	ldr	r3, [sp, #20]
 8003074:	2200      	movs	r2, #0
 8003076:	9300      	str	r3, [sp, #0]
 8003078:	2180      	movs	r1, #128	; 0x80
 800307a:	003b      	movs	r3, r7
 800307c:	0020      	movs	r0, r4
 800307e:	f7ff ff5f 	bl	8002f40 <UART_WaitOnFlagUntilTimeout>
 8003082:	2800      	cmp	r0, #0
 8003084:	d002      	beq.n	800308c <HAL_UART_Transmit+0xbc>
 8003086:	2003      	movs	r0, #3
 8003088:	b007      	add	sp, #28
 800308a:	bdf0      	pop	{r4, r5, r6, r7, pc}
 800308c:	6822      	ldr	r2, [r4, #0]
 800308e:	2d00      	cmp	r5, #0
 8003090:	d10b      	bne.n	80030aa <HAL_UART_Transmit+0xda>
 8003092:	8833      	ldrh	r3, [r6, #0]
 8003094:	3602      	adds	r6, #2
 8003096:	05db      	lsls	r3, r3, #23
 8003098:	0ddb      	lsrs	r3, r3, #23
 800309a:	8513      	strh	r3, [r2, #40]	; 0x28
 800309c:	9b04      	ldr	r3, [sp, #16]
 800309e:	9a04      	ldr	r2, [sp, #16]
 80030a0:	881b      	ldrh	r3, [r3, #0]
 80030a2:	3b01      	subs	r3, #1
 80030a4:	b29b      	uxth	r3, r3
 80030a6:	8013      	strh	r3, [r2, #0]
 80030a8:	e7d1      	b.n	800304e <HAL_UART_Transmit+0x7e>
 80030aa:	782b      	ldrb	r3, [r5, #0]
 80030ac:	3501      	adds	r5, #1
 80030ae:	8513      	strh	r3, [r2, #40]	; 0x28
 80030b0:	e7f4      	b.n	800309c <HAL_UART_Transmit+0xcc>
	...

080030b4 <UART_CheckIdleState>:
 80030b4:	b573      	push	{r0, r1, r4, r5, r6, lr}
 80030b6:	2600      	movs	r6, #0
 80030b8:	0004      	movs	r4, r0
 80030ba:	1d03      	adds	r3, r0, #4
 80030bc:	67de      	str	r6, [r3, #124]	; 0x7c
 80030be:	f7fe fbe1 	bl	8001884 <HAL_GetTick>
 80030c2:	6823      	ldr	r3, [r4, #0]
 80030c4:	0005      	movs	r5, r0
 80030c6:	681b      	ldr	r3, [r3, #0]
 80030c8:	071b      	lsls	r3, r3, #28
 80030ca:	d416      	bmi.n	80030fa <UART_CheckIdleState+0x46>
 80030cc:	6823      	ldr	r3, [r4, #0]
 80030ce:	681b      	ldr	r3, [r3, #0]
 80030d0:	075b      	lsls	r3, r3, #29
 80030d2:	d50a      	bpl.n	80030ea <UART_CheckIdleState+0x36>
 80030d4:	2180      	movs	r1, #128	; 0x80
 80030d6:	4b0f      	ldr	r3, [pc, #60]	; (8003114 <UART_CheckIdleState+0x60>)
 80030d8:	2200      	movs	r2, #0
 80030da:	9300      	str	r3, [sp, #0]
 80030dc:	0020      	movs	r0, r4
 80030de:	002b      	movs	r3, r5
 80030e0:	03c9      	lsls	r1, r1, #15
 80030e2:	f7ff ff2d 	bl	8002f40 <UART_WaitOnFlagUntilTimeout>
 80030e6:	2800      	cmp	r0, #0
 80030e8:	d112      	bne.n	8003110 <UART_CheckIdleState+0x5c>
 80030ea:	2320      	movs	r3, #32
 80030ec:	2000      	movs	r0, #0
 80030ee:	67a3      	str	r3, [r4, #120]	; 0x78
 80030f0:	67e3      	str	r3, [r4, #124]	; 0x7c
 80030f2:	6620      	str	r0, [r4, #96]	; 0x60
 80030f4:	3474      	adds	r4, #116	; 0x74
 80030f6:	7020      	strb	r0, [r4, #0]
 80030f8:	e00b      	b.n	8003112 <UART_CheckIdleState+0x5e>
 80030fa:	2180      	movs	r1, #128	; 0x80
 80030fc:	4b05      	ldr	r3, [pc, #20]	; (8003114 <UART_CheckIdleState+0x60>)
 80030fe:	0032      	movs	r2, r6
 8003100:	9300      	str	r3, [sp, #0]
 8003102:	0389      	lsls	r1, r1, #14
 8003104:	0003      	movs	r3, r0
 8003106:	0020      	movs	r0, r4
 8003108:	f7ff ff1a 	bl	8002f40 <UART_WaitOnFlagUntilTimeout>
 800310c:	2800      	cmp	r0, #0
 800310e:	d0dd      	beq.n	80030cc <UART_CheckIdleState+0x18>
 8003110:	2003      	movs	r0, #3
 8003112:	bd76      	pop	{r1, r2, r4, r5, r6, pc}
 8003114:	01ffffff 	.word	0x01ffffff

08003118 <HAL_UART_Init>:
 8003118:	b510      	push	{r4, lr}
 800311a:	1e04      	subs	r4, r0, #0
 800311c:	d101      	bne.n	8003122 <HAL_UART_Init+0xa>
 800311e:	2001      	movs	r0, #1
 8003120:	bd10      	pop	{r4, pc}
 8003122:	6f83      	ldr	r3, [r0, #120]	; 0x78
 8003124:	2b00      	cmp	r3, #0
 8003126:	d104      	bne.n	8003132 <HAL_UART_Init+0x1a>
 8003128:	0002      	movs	r2, r0
 800312a:	3274      	adds	r2, #116	; 0x74
 800312c:	7013      	strb	r3, [r2, #0]
 800312e:	f7fe fb01 	bl	8001734 <HAL_UART_MspInit>
 8003132:	2324      	movs	r3, #36	; 0x24
 8003134:	2101      	movs	r1, #1
 8003136:	6822      	ldr	r2, [r4, #0]
 8003138:	67a3      	str	r3, [r4, #120]	; 0x78
 800313a:	6813      	ldr	r3, [r2, #0]
 800313c:	0020      	movs	r0, r4
 800313e:	438b      	bics	r3, r1
 8003140:	6013      	str	r3, [r2, #0]
 8003142:	f7ff fdfb 	bl	8002d3c <UART_SetConfig>
 8003146:	2801      	cmp	r0, #1
 8003148:	d0e9      	beq.n	800311e <HAL_UART_Init+0x6>
 800314a:	6a63      	ldr	r3, [r4, #36]	; 0x24
 800314c:	2b00      	cmp	r3, #0
 800314e:	d002      	beq.n	8003156 <HAL_UART_Init+0x3e>
 8003150:	0020      	movs	r0, r4
 8003152:	f7ff fe8d 	bl	8002e70 <UART_AdvFeatureConfig>
 8003156:	6823      	ldr	r3, [r4, #0]
 8003158:	4907      	ldr	r1, [pc, #28]	; (8003178 <HAL_UART_Init+0x60>)
 800315a:	685a      	ldr	r2, [r3, #4]
 800315c:	0020      	movs	r0, r4
 800315e:	400a      	ands	r2, r1
 8003160:	2108      	movs	r1, #8
 8003162:	605a      	str	r2, [r3, #4]
 8003164:	689a      	ldr	r2, [r3, #8]
 8003166:	438a      	bics	r2, r1
 8003168:	609a      	str	r2, [r3, #8]
 800316a:	2201      	movs	r2, #1
 800316c:	6819      	ldr	r1, [r3, #0]
 800316e:	430a      	orrs	r2, r1
 8003170:	601a      	str	r2, [r3, #0]
 8003172:	f7ff ff9f 	bl	80030b4 <UART_CheckIdleState>
 8003176:	e7d3      	b.n	8003120 <HAL_UART_Init+0x8>
 8003178:	fffff7ff 	.word	0xfffff7ff

0800317c <my_strlen>:
 800317c:	1e03      	subs	r3, r0, #0
 800317e:	d003      	beq.n	8003188 <my_strlen+0xc>
 8003180:	2000      	movs	r0, #0
 8003182:	5c1a      	ldrb	r2, [r3, r0]
 8003184:	2a00      	cmp	r2, #0
 8003186:	d100      	bne.n	800318a <my_strlen+0xe>
 8003188:	4770      	bx	lr
 800318a:	3001      	adds	r0, #1
 800318c:	e7f9      	b.n	8003182 <my_strlen+0x6>

0800318e <my_memcpy>:
 800318e:	b510      	push	{r4, lr}
 8003190:	2800      	cmp	r0, #0
 8003192:	d012      	beq.n	80031ba <my_memcpy+0x2c>
 8003194:	2900      	cmp	r1, #0
 8003196:	d013      	beq.n	80031c0 <my_memcpy+0x32>
 8003198:	4288      	cmp	r0, r1
 800319a:	d90f      	bls.n	80031bc <my_memcpy+0x2e>
 800319c:	188c      	adds	r4, r1, r2
 800319e:	0013      	movs	r3, r2
 80031a0:	42a0      	cmp	r0, r4
 80031a2:	d80b      	bhi.n	80031bc <my_memcpy+0x2e>
 80031a4:	3b01      	subs	r3, #1
 80031a6:	d308      	bcc.n	80031ba <my_memcpy+0x2c>
 80031a8:	5cca      	ldrb	r2, [r1, r3]
 80031aa:	54c2      	strb	r2, [r0, r3]
 80031ac:	e7fa      	b.n	80031a4 <my_memcpy+0x16>
 80031ae:	5ccc      	ldrb	r4, [r1, r3]
 80031b0:	54c4      	strb	r4, [r0, r3]
 80031b2:	3301      	adds	r3, #1
 80031b4:	b29c      	uxth	r4, r3
 80031b6:	42a2      	cmp	r2, r4
 80031b8:	d8f9      	bhi.n	80031ae <my_memcpy+0x20>
 80031ba:	bd10      	pop	{r4, pc}
 80031bc:	2300      	movs	r3, #0
 80031be:	e7f9      	b.n	80031b4 <my_memcpy+0x26>
 80031c0:	0008      	movs	r0, r1
 80031c2:	e7fa      	b.n	80031ba <my_memcpy+0x2c>

080031c4 <byte_to_int>:
 80031c4:	7843      	ldrb	r3, [r0, #1]
 80031c6:	7802      	ldrb	r2, [r0, #0]
 80031c8:	021b      	lsls	r3, r3, #8
 80031ca:	4313      	orrs	r3, r2
 80031cc:	ba5b      	rev16	r3, r3
 80031ce:	7882      	ldrb	r2, [r0, #2]
 80031d0:	b29b      	uxth	r3, r3
 80031d2:	021b      	lsls	r3, r3, #8
 80031d4:	78c0      	ldrb	r0, [r0, #3]
 80031d6:	4313      	orrs	r3, r2
 80031d8:	021b      	lsls	r3, r3, #8
 80031da:	4318      	orrs	r0, r3
 80031dc:	4770      	bx	lr
	...

080031e0 <mcu_dp_raw_update>:
 80031e0:	b570      	push	{r4, r5, r6, lr}
 80031e2:	4b0f      	ldr	r3, [pc, #60]	; (8003220 <mcu_dp_raw_update+0x40>)
 80031e4:	000d      	movs	r5, r1
 80031e6:	781b      	ldrb	r3, [r3, #0]
 80031e8:	0014      	movs	r4, r2
 80031ea:	2b01      	cmp	r3, #1
 80031ec:	d015      	beq.n	800321a <mcu_dp_raw_update+0x3a>
 80031ee:	0001      	movs	r1, r0
 80031f0:	2000      	movs	r0, #0
 80031f2:	f000 f993 	bl	800351c <set_wifi_uart_byte>
 80031f6:	2100      	movs	r1, #0
 80031f8:	f000 f990 	bl	800351c <set_wifi_uart_byte>
 80031fc:	0a21      	lsrs	r1, r4, #8
 80031fe:	f000 f98d 	bl	800351c <set_wifi_uart_byte>
 8003202:	b2e1      	uxtb	r1, r4
 8003204:	f000 f98a 	bl	800351c <set_wifi_uart_byte>
 8003208:	0022      	movs	r2, r4
 800320a:	0029      	movs	r1, r5
 800320c:	f000 f98e 	bl	800352c <set_wifi_uart_buffer>
 8003210:	2103      	movs	r1, #3
 8003212:	0002      	movs	r2, r0
 8003214:	2007      	movs	r0, #7
 8003216:	f000 f9a5 	bl	8003564 <wifi_uart_write_frame>
 800321a:	2001      	movs	r0, #1
 800321c:	bd70      	pop	{r4, r5, r6, pc}
 800321e:	46c0      	nop			; (mov r8, r8)
 8003220:	20000265 	.word	0x20000265

08003224 <mcu_dp_bool_update>:
 8003224:	b510      	push	{r4, lr}
 8003226:	4b0f      	ldr	r3, [pc, #60]	; (8003264 <mcu_dp_bool_update+0x40>)
 8003228:	000c      	movs	r4, r1
 800322a:	781b      	ldrb	r3, [r3, #0]
 800322c:	2b01      	cmp	r3, #1
 800322e:	d016      	beq.n	800325e <mcu_dp_bool_update+0x3a>
 8003230:	0001      	movs	r1, r0
 8003232:	2000      	movs	r0, #0
 8003234:	f000 f972 	bl	800351c <set_wifi_uart_byte>
 8003238:	2101      	movs	r1, #1
 800323a:	f000 f96f 	bl	800351c <set_wifi_uart_byte>
 800323e:	2100      	movs	r1, #0
 8003240:	f000 f96c 	bl	800351c <set_wifi_uart_byte>
 8003244:	2101      	movs	r1, #1
 8003246:	f000 f969 	bl	800351c <set_wifi_uart_byte>
 800324a:	1e21      	subs	r1, r4, #0
 800324c:	d000      	beq.n	8003250 <mcu_dp_bool_update+0x2c>
 800324e:	2101      	movs	r1, #1
 8003250:	f000 f964 	bl	800351c <set_wifi_uart_byte>
 8003254:	2103      	movs	r1, #3
 8003256:	0002      	movs	r2, r0
 8003258:	2007      	movs	r0, #7
 800325a:	f000 f983 	bl	8003564 <wifi_uart_write_frame>
 800325e:	2001      	movs	r0, #1
 8003260:	bd10      	pop	{r4, pc}
 8003262:	46c0      	nop			; (mov r8, r8)
 8003264:	20000265 	.word	0x20000265

08003268 <mcu_dp_value_update>:
 8003268:	b510      	push	{r4, lr}
 800326a:	4b13      	ldr	r3, [pc, #76]	; (80032b8 <mcu_dp_value_update+0x50>)
 800326c:	000c      	movs	r4, r1
 800326e:	781b      	ldrb	r3, [r3, #0]
 8003270:	2b01      	cmp	r3, #1
 8003272:	d01f      	beq.n	80032b4 <mcu_dp_value_update+0x4c>
 8003274:	0001      	movs	r1, r0
 8003276:	2000      	movs	r0, #0
 8003278:	f000 f950 	bl	800351c <set_wifi_uart_byte>
 800327c:	2102      	movs	r1, #2
 800327e:	f000 f94d 	bl	800351c <set_wifi_uart_byte>
 8003282:	2100      	movs	r1, #0
 8003284:	f000 f94a 	bl	800351c <set_wifi_uart_byte>
 8003288:	2104      	movs	r1, #4
 800328a:	f000 f947 	bl	800351c <set_wifi_uart_byte>
 800328e:	0e21      	lsrs	r1, r4, #24
 8003290:	f000 f944 	bl	800351c <set_wifi_uart_byte>
 8003294:	0c21      	lsrs	r1, r4, #16
 8003296:	b2c9      	uxtb	r1, r1
 8003298:	f000 f940 	bl	800351c <set_wifi_uart_byte>
 800329c:	0a21      	lsrs	r1, r4, #8
 800329e:	b2c9      	uxtb	r1, r1
 80032a0:	f000 f93c 	bl	800351c <set_wifi_uart_byte>
 80032a4:	b2e1      	uxtb	r1, r4
 80032a6:	f000 f939 	bl	800351c <set_wifi_uart_byte>
 80032aa:	2103      	movs	r1, #3
 80032ac:	0002      	movs	r2, r0
 80032ae:	2007      	movs	r0, #7
 80032b0:	f000 f958 	bl	8003564 <wifi_uart_write_frame>
 80032b4:	2001      	movs	r0, #1
 80032b6:	bd10      	pop	{r4, pc}
 80032b8:	20000265 	.word	0x20000265

080032bc <mcu_dp_enum_update>:
 80032bc:	b510      	push	{r4, lr}
 80032be:	4b0e      	ldr	r3, [pc, #56]	; (80032f8 <mcu_dp_enum_update+0x3c>)
 80032c0:	000c      	movs	r4, r1
 80032c2:	781b      	ldrb	r3, [r3, #0]
 80032c4:	2b01      	cmp	r3, #1
 80032c6:	d014      	beq.n	80032f2 <mcu_dp_enum_update+0x36>
 80032c8:	0001      	movs	r1, r0
 80032ca:	2000      	movs	r0, #0
 80032cc:	f000 f926 	bl	800351c <set_wifi_uart_byte>
 80032d0:	2104      	movs	r1, #4
 80032d2:	f000 f923 	bl	800351c <set_wifi_uart_byte>
 80032d6:	2100      	movs	r1, #0
 80032d8:	f000 f920 	bl	800351c <set_wifi_uart_byte>
 80032dc:	2101      	movs	r1, #1
 80032de:	f000 f91d 	bl	800351c <set_wifi_uart_byte>
 80032e2:	0021      	movs	r1, r4
 80032e4:	f000 f91a 	bl	800351c <set_wifi_uart_byte>
 80032e8:	2103      	movs	r1, #3
 80032ea:	0002      	movs	r2, r0
 80032ec:	2007      	movs	r0, #7
 80032ee:	f000 f939 	bl	8003564 <wifi_uart_write_frame>
 80032f2:	2001      	movs	r0, #1
 80032f4:	bd10      	pop	{r4, pc}
 80032f6:	46c0      	nop			; (mov r8, r8)
 80032f8:	20000265 	.word	0x20000265

080032fc <mcu_get_dp_download_bool>:
 80032fc:	7800      	ldrb	r0, [r0, #0]
 80032fe:	4770      	bx	lr

08003300 <mcu_get_dp_download_enum>:
 8003300:	7800      	ldrb	r0, [r0, #0]
 8003302:	4770      	bx	lr

08003304 <mcu_get_dp_download_value>:
 8003304:	b510      	push	{r4, lr}
 8003306:	f7ff ff5d 	bl	80031c4 <byte_to_int>
 800330a:	bd10      	pop	{r4, pc}

0800330c <uart_receive_input>:
 800330c:	4b0b      	ldr	r3, [pc, #44]	; (800333c <uart_receive_input+0x30>)
 800330e:	4a0c      	ldr	r2, [pc, #48]	; (8003340 <uart_receive_input+0x34>)
 8003310:	681b      	ldr	r3, [r3, #0]
 8003312:	6811      	ldr	r1, [r2, #0]
 8003314:	b510      	push	{r4, lr}
 8003316:	1a5c      	subs	r4, r3, r1
 8003318:	2c01      	cmp	r4, #1
 800331a:	d00d      	beq.n	8003338 <uart_receive_input+0x2c>
 800331c:	428b      	cmp	r3, r1
 800331e:	d202      	bcs.n	8003326 <uart_receive_input+0x1a>
 8003320:	1acb      	subs	r3, r1, r3
 8003322:	2b16      	cmp	r3, #22
 8003324:	d808      	bhi.n	8003338 <uart_receive_input+0x2c>
 8003326:	4b07      	ldr	r3, [pc, #28]	; (8003344 <uart_receive_input+0x38>)
 8003328:	4299      	cmp	r1, r3
 800332a:	d301      	bcc.n	8003330 <uart_receive_input+0x24>
 800332c:	4b06      	ldr	r3, [pc, #24]	; (8003348 <uart_receive_input+0x3c>)
 800332e:	6013      	str	r3, [r2, #0]
 8003330:	6813      	ldr	r3, [r2, #0]
 8003332:	1c59      	adds	r1, r3, #1
 8003334:	6011      	str	r1, [r2, #0]
 8003336:	7018      	strb	r0, [r3, #0]
 8003338:	bd10      	pop	{r4, pc}
 800333a:	46c0      	nop			; (mov r8, r8)
 800333c:	20000228 	.word	0x20000228
 8003340:	2000020c 	.word	0x2000020c
 8003344:	20000227 	.word	0x20000227
 8003348:	20000210 	.word	0x20000210

0800334c <wifi_uart_service>:
 800334c:	b5f8      	push	{r3, r4, r5, r6, r7, lr}
 800334e:	4e26      	ldr	r6, [pc, #152]	; (80033e8 <wifi_uart_service+0x9c>)
 8003350:	8833      	ldrh	r3, [r6, #0]
 8003352:	2b1e      	cmp	r3, #30
 8003354:	d904      	bls.n	8003360 <wifi_uart_service+0x14>
 8003356:	8833      	ldrh	r3, [r6, #0]
 8003358:	2400      	movs	r4, #0
 800335a:	2b06      	cmp	r3, #6
 800335c:	d812      	bhi.n	8003384 <wifi_uart_service+0x38>
 800335e:	bdf8      	pop	{r3, r4, r5, r6, r7, pc}
 8003360:	f000 fa20 	bl	80037a4 <with_data_rxbuff>
 8003364:	2800      	cmp	r0, #0
 8003366:	d0f6      	beq.n	8003356 <wifi_uart_service+0xa>
 8003368:	8834      	ldrh	r4, [r6, #0]
 800336a:	1c63      	adds	r3, r4, #1
 800336c:	8033      	strh	r3, [r6, #0]
 800336e:	f000 fa27 	bl	80037c0 <take_byte_rxbuff>
 8003372:	4b1e      	ldr	r3, [pc, #120]	; (80033ec <wifi_uart_service+0xa0>)
 8003374:	5518      	strb	r0, [r3, r4]
 8003376:	e7ea      	b.n	800334e <wifi_uart_service+0x2>
 8003378:	4f1c      	ldr	r7, [pc, #112]	; (80033ec <wifi_uart_service+0xa0>)
 800337a:	1c63      	adds	r3, r4, #1
 800337c:	5d39      	ldrb	r1, [r7, r4]
 800337e:	2955      	cmp	r1, #85	; 0x55
 8003380:	d00d      	beq.n	800339e <wifi_uart_service+0x52>
 8003382:	b29c      	uxth	r4, r3
 8003384:	8832      	ldrh	r2, [r6, #0]
 8003386:	1b12      	subs	r2, r2, r4
 8003388:	2a06      	cmp	r2, #6
 800338a:	dcf5      	bgt.n	8003378 <wifi_uart_service+0x2c>
 800338c:	b292      	uxth	r2, r2
 800338e:	8032      	strh	r2, [r6, #0]
 8003390:	2a00      	cmp	r2, #0
 8003392:	d0e4      	beq.n	800335e <wifi_uart_service+0x12>
 8003394:	4815      	ldr	r0, [pc, #84]	; (80033ec <wifi_uart_service+0xa0>)
 8003396:	1821      	adds	r1, r4, r0
 8003398:	f7ff fef9 	bl	800318e <my_memcpy>
 800339c:	e7df      	b.n	800335e <wifi_uart_service+0x12>
 800339e:	5cf9      	ldrb	r1, [r7, r3]
 80033a0:	29aa      	cmp	r1, #170	; 0xaa
 80033a2:	d1ee      	bne.n	8003382 <wifi_uart_service+0x36>
 80033a4:	1ca3      	adds	r3, r4, #2
 80033a6:	5cf9      	ldrb	r1, [r7, r3]
 80033a8:	2900      	cmp	r1, #0
 80033aa:	d1ea      	bne.n	8003382 <wifi_uart_service+0x36>
 80033ac:	1d23      	adds	r3, r4, #4
 80033ae:	5cfd      	ldrb	r5, [r7, r3]
 80033b0:	1d63      	adds	r3, r4, #5
 80033b2:	5cfb      	ldrb	r3, [r7, r3]
 80033b4:	022d      	lsls	r5, r5, #8
 80033b6:	3307      	adds	r3, #7
 80033b8:	18ed      	adds	r5, r5, r3
 80033ba:	b2ad      	uxth	r5, r5
 80033bc:	2d26      	cmp	r5, #38	; 0x26
 80033be:	d902      	bls.n	80033c6 <wifi_uart_service+0x7a>
 80033c0:	3403      	adds	r4, #3
 80033c2:	b2a4      	uxth	r4, r4
 80033c4:	e7de      	b.n	8003384 <wifi_uart_service+0x38>
 80033c6:	4295      	cmp	r5, r2
 80033c8:	dce0      	bgt.n	800338c <wifi_uart_service+0x40>
 80033ca:	1e69      	subs	r1, r5, #1
 80033cc:	b289      	uxth	r1, r1
 80033ce:	19e0      	adds	r0, r4, r7
 80033d0:	f000 f8ba 	bl	8003548 <get_check_sum>
 80033d4:	192d      	adds	r5, r5, r4
 80033d6:	1e6b      	subs	r3, r5, #1
 80033d8:	5cfb      	ldrb	r3, [r7, r3]
 80033da:	4298      	cmp	r0, r3
 80033dc:	d1f0      	bne.n	80033c0 <wifi_uart_service+0x74>
 80033de:	0020      	movs	r0, r4
 80033e0:	f000 f8e6 	bl	80035b0 <data_handle>
 80033e4:	b2ac      	uxth	r4, r5
 80033e6:	e7cd      	b.n	8003384 <wifi_uart_service+0x38>
 80033e8:	200000c0 	.word	0x200000c0
 80033ec:	200001ec 	.word	0x200001ec

080033f0 <wifi_protocol_init>:
 80033f0:	4b05      	ldr	r3, [pc, #20]	; (8003408 <wifi_protocol_init+0x18>)
 80033f2:	4a06      	ldr	r2, [pc, #24]	; (800340c <wifi_protocol_init+0x1c>)
 80033f4:	6013      	str	r3, [r2, #0]
 80033f6:	4a06      	ldr	r2, [pc, #24]	; (8003410 <wifi_protocol_init+0x20>)
 80033f8:	6013      	str	r3, [r2, #0]
 80033fa:	2200      	movs	r2, #0
 80033fc:	4b05      	ldr	r3, [pc, #20]	; (8003414 <wifi_protocol_init+0x24>)
 80033fe:	701a      	strb	r2, [r3, #0]
 8003400:	4b05      	ldr	r3, [pc, #20]	; (8003418 <wifi_protocol_init+0x28>)
 8003402:	32ff      	adds	r2, #255	; 0xff
 8003404:	701a      	strb	r2, [r3, #0]
 8003406:	4770      	bx	lr
 8003408:	20000210 	.word	0x20000210
 800340c:	2000020c 	.word	0x2000020c
 8003410:	20000228 	.word	0x20000228
 8003414:	20000265 	.word	0x20000265
 8003418:	20000263 	.word	0x20000263

0800341c <uart_transmit_output>:
 800341c:	b507      	push	{r0, r1, r2, lr}
 800341e:	466b      	mov	r3, sp
 8003420:	1dd9      	adds	r1, r3, #7
 8003422:	23fa      	movs	r3, #250	; 0xfa
 8003424:	7008      	strb	r0, [r1, #0]
 8003426:	2201      	movs	r2, #1
 8003428:	4802      	ldr	r0, [pc, #8]	; (8003434 <uart_transmit_output+0x18>)
 800342a:	009b      	lsls	r3, r3, #2
 800342c:	f7ff fdd0 	bl	8002fd0 <HAL_UART_Transmit>
 8003430:	bd07      	pop	{r0, r1, r2, pc}
 8003432:	46c0      	nop			; (mov r8, r8)
 8003434:	20000164 	.word	0x20000164

08003438 <all_data_update>:
 8003438:	4770      	bx	lr
	...

0800343c <dp_download_handle>:
 800343c:	3801      	subs	r0, #1
 800343e:	b510      	push	{r4, lr}
 8003440:	2300      	movs	r3, #0
 8003442:	000c      	movs	r4, r1
 8003444:	0011      	movs	r1, r2
 8003446:	2813      	cmp	r0, #19
 8003448:	d813      	bhi.n	8003472 <dp_download_handle+0x36>
 800344a:	f7fc fe65 	bl	8000118 <__gnu_thumb1_case_uqi>
 800344e:	140a      	.short	0x140a
 8003450:	2c24121c 	.word	0x2c24121c
 8003454:	12123832 	.word	0x12123832
 8003458:	12121212 	.word	0x12121212
 800345c:	3e121212 	.word	0x3e121212
 8003460:	5844      	.short	0x5844
 8003462:	0021      	movs	r1, r4
 8003464:	2001      	movs	r0, #1
 8003466:	f7ff febb 	bl	80031e0 <mcu_dp_raw_update>
 800346a:	3801      	subs	r0, #1
 800346c:	4243      	negs	r3, r0
 800346e:	4143      	adcs	r3, r0
 8003470:	b2db      	uxtb	r3, r3
 8003472:	0018      	movs	r0, r3
 8003474:	bd10      	pop	{r4, pc}
 8003476:	0020      	movs	r0, r4
 8003478:	f7ff ff40 	bl	80032fc <mcu_get_dp_download_bool>
 800347c:	0001      	movs	r1, r0
 800347e:	2002      	movs	r0, #2
 8003480:	f7ff fed0 	bl	8003224 <mcu_dp_bool_update>
 8003484:	e7f1      	b.n	800346a <dp_download_handle+0x2e>
 8003486:	0020      	movs	r0, r4
 8003488:	f7ff ff3c 	bl	8003304 <mcu_get_dp_download_value>
 800348c:	0001      	movs	r1, r0
 800348e:	2003      	movs	r0, #3
 8003490:	f7ff feea 	bl	8003268 <mcu_dp_value_update>
 8003494:	e7e9      	b.n	800346a <dp_download_handle+0x2e>
 8003496:	0020      	movs	r0, r4
 8003498:	f7ff ff32 	bl	8003300 <mcu_get_dp_download_enum>
 800349c:	0001      	movs	r1, r0
 800349e:	2005      	movs	r0, #5
 80034a0:	f7ff ff0c 	bl	80032bc <mcu_dp_enum_update>
 80034a4:	e7e1      	b.n	800346a <dp_download_handle+0x2e>
 80034a6:	0020      	movs	r0, r4
 80034a8:	f7ff ff28 	bl	80032fc <mcu_get_dp_download_bool>
 80034ac:	0001      	movs	r1, r0
 80034ae:	2006      	movs	r0, #6
 80034b0:	e7e6      	b.n	8003480 <dp_download_handle+0x44>
 80034b2:	0020      	movs	r0, r4
 80034b4:	f7ff ff22 	bl	80032fc <mcu_get_dp_download_bool>
 80034b8:	0001      	movs	r1, r0
 80034ba:	2007      	movs	r0, #7
 80034bc:	e7e0      	b.n	8003480 <dp_download_handle+0x44>
 80034be:	0020      	movs	r0, r4
 80034c0:	f7ff ff1c 	bl	80032fc <mcu_get_dp_download_bool>
 80034c4:	0001      	movs	r1, r0
 80034c6:	2008      	movs	r0, #8
 80034c8:	e7da      	b.n	8003480 <dp_download_handle+0x44>
 80034ca:	0020      	movs	r0, r4
 80034cc:	f7ff ff1a 	bl	8003304 <mcu_get_dp_download_value>
 80034d0:	0001      	movs	r1, r0
 80034d2:	2012      	movs	r0, #18
 80034d4:	e7dc      	b.n	8003490 <dp_download_handle+0x54>
 80034d6:	0020      	movs	r0, r4
 80034d8:	f7ff ff10 	bl	80032fc <mcu_get_dp_download_bool>
 80034dc:	4b0b      	ldr	r3, [pc, #44]	; (800350c <dp_download_handle+0xd0>)
 80034de:	1e04      	subs	r4, r0, #0
 80034e0:	d109      	bne.n	80034f6 <dp_download_handle+0xba>
 80034e2:	2201      	movs	r2, #1
 80034e4:	7018      	strb	r0, [r3, #0]
 80034e6:	2180      	movs	r1, #128	; 0x80
 80034e8:	4809      	ldr	r0, [pc, #36]	; (8003510 <dp_download_handle+0xd4>)
 80034ea:	01c9      	lsls	r1, r1, #7
 80034ec:	f7fe fb2c 	bl	8001b48 <HAL_GPIO_WritePin>
 80034f0:	0021      	movs	r1, r4
 80034f2:	2013      	movs	r0, #19
 80034f4:	e7c4      	b.n	8003480 <dp_download_handle+0x44>
 80034f6:	2201      	movs	r2, #1
 80034f8:	701a      	strb	r2, [r3, #0]
 80034fa:	2200      	movs	r2, #0
 80034fc:	e7f3      	b.n	80034e6 <dp_download_handle+0xaa>
 80034fe:	0020      	movs	r0, r4
 8003500:	f7ff fefc 	bl	80032fc <mcu_get_dp_download_bool>
 8003504:	0001      	movs	r1, r0
 8003506:	2014      	movs	r0, #20
 8003508:	e7ba      	b.n	8003480 <dp_download_handle+0x44>
 800350a:	46c0      	nop			; (mov r8, r8)
 800350c:	20000000 	.word	0x20000000
 8003510:	48000400 	.word	0x48000400

08003514 <get_download_cmd_total>:
 8003514:	2013      	movs	r0, #19
 8003516:	4770      	bx	lr

08003518 <wifi_test_result>:
 8003518:	4770      	bx	lr
	...

0800351c <set_wifi_uart_byte>:
 800351c:	4b02      	ldr	r3, [pc, #8]	; (8003528 <set_wifi_uart_byte+0xc>)
 800351e:	5419      	strb	r1, [r3, r0]
 8003520:	3001      	adds	r0, #1
 8003522:	b280      	uxth	r0, r0
 8003524:	4770      	bx	lr
 8003526:	46c0      	nop			; (mov r8, r8)
 8003528:	20000232 	.word	0x20000232

0800352c <set_wifi_uart_buffer>:
 800352c:	b570      	push	{r4, r5, r6, lr}
 800352e:	0015      	movs	r5, r2
 8003530:	0004      	movs	r4, r0
 8003532:	4b04      	ldr	r3, [pc, #16]	; (8003544 <set_wifi_uart_buffer+0x18>)
 8003534:	3006      	adds	r0, #6
 8003536:	1964      	adds	r4, r4, r5
 8003538:	18c0      	adds	r0, r0, r3
 800353a:	f7ff fe28 	bl	800318e <my_memcpy>
 800353e:	b2a0      	uxth	r0, r4
 8003540:	bd70      	pop	{r4, r5, r6, pc}
 8003542:	46c0      	nop			; (mov r8, r8)
 8003544:	2000022c 	.word	0x2000022c

08003548 <get_check_sum>:
 8003548:	2300      	movs	r3, #0
 800354a:	0002      	movs	r2, r0
 800354c:	0018      	movs	r0, r3
 800354e:	b510      	push	{r4, lr}
 8003550:	b29c      	uxth	r4, r3
 8003552:	42a1      	cmp	r1, r4
 8003554:	d800      	bhi.n	8003558 <get_check_sum+0x10>
 8003556:	bd10      	pop	{r4, pc}
 8003558:	5cd4      	ldrb	r4, [r2, r3]
 800355a:	3301      	adds	r3, #1
 800355c:	1900      	adds	r0, r0, r4
 800355e:	b2c0      	uxtb	r0, r0
 8003560:	e7f6      	b.n	8003550 <get_check_sum+0x8>
	...

08003564 <wifi_uart_write_frame>:
 8003564:	2355      	movs	r3, #85	; 0x55
 8003566:	b570      	push	{r4, r5, r6, lr}
 8003568:	4c0f      	ldr	r4, [pc, #60]	; (80035a8 <wifi_uart_write_frame+0x44>)
 800356a:	1dd5      	adds	r5, r2, #7
 800356c:	7023      	strb	r3, [r4, #0]
 800356e:	18db      	adds	r3, r3, r3
 8003570:	7063      	strb	r3, [r4, #1]
 8003572:	0a13      	lsrs	r3, r2, #8
 8003574:	70a1      	strb	r1, [r4, #2]
 8003576:	70e0      	strb	r0, [r4, #3]
 8003578:	7123      	strb	r3, [r4, #4]
 800357a:	b2d3      	uxtb	r3, r2
 800357c:	3206      	adds	r2, #6
 800357e:	0020      	movs	r0, r4
 8003580:	b291      	uxth	r1, r2
 8003582:	7163      	strb	r3, [r4, #5]
 8003584:	f7ff ffe0 	bl	8003548 <get_check_sum>
 8003588:	b2ad      	uxth	r5, r5
 800358a:	1e6b      	subs	r3, r5, #1
 800358c:	54e0      	strb	r0, [r4, r3]
 800358e:	2d00      	cmp	r5, #0
 8003590:	d104      	bne.n	800359c <wifi_uart_write_frame+0x38>
 8003592:	bd70      	pop	{r4, r5, r6, pc}
 8003594:	7820      	ldrb	r0, [r4, #0]
 8003596:	f7ff ff41 	bl	800341c <uart_transmit_output>
 800359a:	3401      	adds	r4, #1
 800359c:	3d01      	subs	r5, #1
 800359e:	4b03      	ldr	r3, [pc, #12]	; (80035ac <wifi_uart_write_frame+0x48>)
 80035a0:	b2ad      	uxth	r5, r5
 80035a2:	429d      	cmp	r5, r3
 80035a4:	d1f6      	bne.n	8003594 <wifi_uart_write_frame+0x30>
 80035a6:	e7f4      	b.n	8003592 <wifi_uart_write_frame+0x2e>
 80035a8:	2000022c 	.word	0x2000022c
 80035ac:	0000ffff 	.word	0x0000ffff

080035b0 <data_handle>:
 80035b0:	b5f0      	push	{r4, r5, r6, r7, lr}
 80035b2:	4b6c      	ldr	r3, [pc, #432]	; (8003764 <data_handle+0x1b4>)
 80035b4:	1cc2      	adds	r2, r0, #3
 80035b6:	5c9a      	ldrb	r2, [r3, r2]
 80035b8:	0004      	movs	r4, r0
 80035ba:	b089      	sub	sp, #36	; 0x24
 80035bc:	b2d0      	uxtb	r0, r2
 80035be:	2a0e      	cmp	r2, #14
 80035c0:	d816      	bhi.n	80035f0 <data_handle+0x40>
 80035c2:	f7fc fda9 	bl	8000118 <__gnu_thumb1_case_uqi>
 80035c6:	1908      	.short	0x1908
 80035c8:	7b776e6a 	.word	0x7b776e6a
 80035cc:	15c2157d 	.word	0x15c2157d
 80035d0:	15151515 	.word	0x15151515
 80035d4:	c5          	.byte	0xc5
 80035d5:	00          	.byte	0x00
 80035d6:	4964      	ldr	r1, [pc, #400]	; (8003768 <data_handle+0x1b8>)
 80035d8:	2201      	movs	r2, #1
 80035da:	7808      	ldrb	r0, [r1, #0]
 80035dc:	4b63      	ldr	r3, [pc, #396]	; (800376c <data_handle+0x1bc>)
 80035de:	2800      	cmp	r0, #0
 80035e0:	d108      	bne.n	80035f4 <data_handle+0x44>
 80035e2:	7198      	strb	r0, [r3, #6]
 80035e4:	700a      	strb	r2, [r1, #0]
 80035e6:	2201      	movs	r2, #1
 80035e8:	2103      	movs	r1, #3
 80035ea:	2000      	movs	r0, #0
 80035ec:	f7ff ffba 	bl	8003564 <wifi_uart_write_frame>
 80035f0:	b009      	add	sp, #36	; 0x24
 80035f2:	bdf0      	pop	{r4, r5, r6, r7, pc}
 80035f4:	719a      	strb	r2, [r3, #6]
 80035f6:	e7f6      	b.n	80035e6 <data_handle+0x36>
 80035f8:	4c5d      	ldr	r4, [pc, #372]	; (8003770 <data_handle+0x1c0>)
 80035fa:	0020      	movs	r0, r4
 80035fc:	f7ff fdbe 	bl	800317c <my_strlen>
 8003600:	b285      	uxth	r5, r0
 8003602:	002a      	movs	r2, r5
 8003604:	0021      	movs	r1, r4
 8003606:	485b      	ldr	r0, [pc, #364]	; (8003774 <data_handle+0x1c4>)
 8003608:	f7ff fdc1 	bl	800318e <my_memcpy>
 800360c:	4e5a      	ldr	r6, [pc, #360]	; (8003778 <data_handle+0x1c8>)
 800360e:	24ff      	movs	r4, #255	; 0xff
 8003610:	0030      	movs	r0, r6
 8003612:	f7ff fdb3 	bl	800317c <my_strlen>
 8003616:	b282      	uxth	r2, r0
 8003618:	0028      	movs	r0, r5
 800361a:	0031      	movs	r1, r6
 800361c:	4020      	ands	r0, r4
 800361e:	f7ff ff85 	bl	800352c <set_wifi_uart_buffer>
 8003622:	4e56      	ldr	r6, [pc, #344]	; (800377c <data_handle+0x1cc>)
 8003624:	0005      	movs	r5, r0
 8003626:	0030      	movs	r0, r6
 8003628:	f7ff fda8 	bl	800317c <my_strlen>
 800362c:	b282      	uxth	r2, r0
 800362e:	0028      	movs	r0, r5
 8003630:	0031      	movs	r1, r6
 8003632:	4020      	ands	r0, r4
 8003634:	f7ff ff7a 	bl	800352c <set_wifi_uart_buffer>
 8003638:	4e51      	ldr	r6, [pc, #324]	; (8003780 <data_handle+0x1d0>)
 800363a:	0005      	movs	r5, r0
 800363c:	0030      	movs	r0, r6
 800363e:	f7ff fd9d 	bl	800317c <my_strlen>
 8003642:	b282      	uxth	r2, r0
 8003644:	0028      	movs	r0, r5
 8003646:	0031      	movs	r1, r6
 8003648:	4020      	ands	r0, r4
 800364a:	f7ff ff6f 	bl	800352c <set_wifi_uart_buffer>
 800364e:	4e4d      	ldr	r6, [pc, #308]	; (8003784 <data_handle+0x1d4>)
 8003650:	0005      	movs	r5, r0
 8003652:	0030      	movs	r0, r6
 8003654:	f7ff fd92 	bl	800317c <my_strlen>
 8003658:	b282      	uxth	r2, r0
 800365a:	0028      	movs	r0, r5
 800365c:	0031      	movs	r1, r6
 800365e:	4020      	ands	r0, r4
 8003660:	f7ff ff64 	bl	800352c <set_wifi_uart_buffer>
 8003664:	4e48      	ldr	r6, [pc, #288]	; (8003788 <data_handle+0x1d8>)
 8003666:	0005      	movs	r5, r0
 8003668:	0030      	movs	r0, r6
 800366a:	f7ff fd87 	bl	800317c <my_strlen>
 800366e:	b282      	uxth	r2, r0
 8003670:	0028      	movs	r0, r5
 8003672:	0031      	movs	r1, r6
 8003674:	4020      	ands	r0, r4
 8003676:	f7ff ff59 	bl	800352c <set_wifi_uart_buffer>
 800367a:	4e44      	ldr	r6, [pc, #272]	; (800378c <data_handle+0x1dc>)
 800367c:	0005      	movs	r5, r0
 800367e:	0030      	movs	r0, r6
 8003680:	f7ff fd7c 	bl	800317c <my_strlen>
 8003684:	b282      	uxth	r2, r0
 8003686:	0028      	movs	r0, r5
 8003688:	0031      	movs	r1, r6
 800368a:	4020      	ands	r0, r4
 800368c:	f7ff ff4e 	bl	800352c <set_wifi_uart_buffer>
 8003690:	0002      	movs	r2, r0
 8003692:	2103      	movs	r1, #3
 8003694:	2001      	movs	r0, #1
 8003696:	4022      	ands	r2, r4
 8003698:	e7a8      	b.n	80035ec <data_handle+0x3c>
 800369a:	2200      	movs	r2, #0
 800369c:	2103      	movs	r1, #3
 800369e:	2002      	movs	r0, #2
 80036a0:	e7a4      	b.n	80035ec <data_handle+0x3c>
 80036a2:	2103      	movs	r1, #3
 80036a4:	3406      	adds	r4, #6
 80036a6:	5d1b      	ldrb	r3, [r3, r4]
 80036a8:	4a39      	ldr	r2, [pc, #228]	; (8003790 <data_handle+0x1e0>)
 80036aa:	b2db      	uxtb	r3, r3
 80036ac:	7013      	strb	r3, [r2, #0]
 80036ae:	0008      	movs	r0, r1
 80036b0:	2200      	movs	r2, #0
 80036b2:	e79b      	b.n	80035ec <data_handle+0x3c>
 80036b4:	4b37      	ldr	r3, [pc, #220]	; (8003794 <data_handle+0x1e4>)
 80036b6:	2201      	movs	r2, #1
 80036b8:	701a      	strb	r2, [r3, #0]
 80036ba:	e799      	b.n	80035f0 <data_handle+0x40>
 80036bc:	4b36      	ldr	r3, [pc, #216]	; (8003798 <data_handle+0x1e8>)
 80036be:	e7fa      	b.n	80036b6 <data_handle+0x106>
 80036c0:	2600      	movs	r6, #0
 80036c2:	1d22      	adds	r2, r4, #4
 80036c4:	5c9a      	ldrb	r2, [r3, r2]
 80036c6:	1d61      	adds	r1, r4, #5
 80036c8:	5c59      	ldrb	r1, [r3, r1]
 80036ca:	0212      	lsls	r2, r2, #8
 80036cc:	430a      	orrs	r2, r1
 80036ce:	9202      	str	r2, [sp, #8]
 80036d0:	9b02      	ldr	r3, [sp, #8]
 80036d2:	429e      	cmp	r6, r3
 80036d4:	d300      	bcc.n	80036d8 <data_handle+0x128>
 80036d6:	e78b      	b.n	80035f0 <data_handle+0x40>
 80036d8:	1da3      	adds	r3, r4, #6
 80036da:	4a22      	ldr	r2, [pc, #136]	; (8003764 <data_handle+0x1b4>)
 80036dc:	199b      	adds	r3, r3, r6
 80036de:	1c99      	adds	r1, r3, #2
 80036e0:	5c51      	ldrb	r1, [r2, r1]
 80036e2:	18d5      	adds	r5, r2, r3
 80036e4:	0209      	lsls	r1, r1, #8
 80036e6:	5cd7      	ldrb	r7, [r2, r3]
 80036e8:	9103      	str	r1, [sp, #12]
 80036ea:	1cd9      	adds	r1, r3, #3
 80036ec:	786b      	ldrb	r3, [r5, #1]
 80036ee:	5c51      	ldrb	r1, [r2, r1]
 80036f0:	9304      	str	r3, [sp, #16]
 80036f2:	78ab      	ldrb	r3, [r5, #2]
 80036f4:	3104      	adds	r1, #4
 80036f6:	9305      	str	r3, [sp, #20]
 80036f8:	78eb      	ldrb	r3, [r5, #3]
 80036fa:	9107      	str	r1, [sp, #28]
 80036fc:	9306      	str	r3, [sp, #24]
 80036fe:	f7ff ff09 	bl	8003514 <get_download_cmd_total>
 8003702:	4a26      	ldr	r2, [pc, #152]	; (800379c <data_handle+0x1ec>)
 8003704:	2300      	movs	r3, #0
 8003706:	4694      	mov	ip, r2
 8003708:	b2d9      	uxtb	r1, r3
 800370a:	9301      	str	r3, [sp, #4]
 800370c:	4288      	cmp	r0, r1
 800370e:	d905      	bls.n	800371c <data_handle+0x16c>
 8003710:	4662      	mov	r2, ip
 8003712:	3301      	adds	r3, #1
 8003714:	0059      	lsls	r1, r3, #1
 8003716:	5c51      	ldrb	r1, [r2, r1]
 8003718:	42b9      	cmp	r1, r7
 800371a:	d1f5      	bne.n	8003708 <data_handle+0x158>
 800371c:	9b01      	ldr	r3, [sp, #4]
 800371e:	005a      	lsls	r2, r3, #1
 8003720:	4b1f      	ldr	r3, [pc, #124]	; (80037a0 <data_handle+0x1f0>)
 8003722:	189b      	adds	r3, r3, r2
 8003724:	785b      	ldrb	r3, [r3, #1]
 8003726:	9a04      	ldr	r2, [sp, #16]
 8003728:	4293      	cmp	r3, r2
 800372a:	d108      	bne.n	800373e <data_handle+0x18e>
 800372c:	9b05      	ldr	r3, [sp, #20]
 800372e:	0038      	movs	r0, r7
 8003730:	021a      	lsls	r2, r3, #8
 8003732:	9b06      	ldr	r3, [sp, #24]
 8003734:	1d29      	adds	r1, r5, #4
 8003736:	18d2      	adds	r2, r2, r3
 8003738:	b292      	uxth	r2, r2
 800373a:	f7ff fe7f 	bl	800343c <dp_download_handle>
 800373e:	9b07      	ldr	r3, [sp, #28]
 8003740:	18f6      	adds	r6, r6, r3
 8003742:	9b03      	ldr	r3, [sp, #12]
 8003744:	18f6      	adds	r6, r6, r3
 8003746:	b2b6      	uxth	r6, r6
 8003748:	e7c2      	b.n	80036d0 <data_handle+0x120>
 800374a:	f7ff fe75 	bl	8003438 <all_data_update>
 800374e:	e74f      	b.n	80035f0 <data_handle+0x40>
 8003750:	1da2      	adds	r2, r4, #6
 8003752:	3407      	adds	r4, #7
 8003754:	5c98      	ldrb	r0, [r3, r2]
 8003756:	5d19      	ldrb	r1, [r3, r4]
 8003758:	b2c0      	uxtb	r0, r0
 800375a:	b2c9      	uxtb	r1, r1
 800375c:	f7ff fedc 	bl	8003518 <wifi_test_result>
 8003760:	e746      	b.n	80035f0 <data_handle+0x40>
 8003762:	46c0      	nop			; (mov r8, r8)
 8003764:	200001ec 	.word	0x200001ec
 8003768:	200000c2 	.word	0x200000c2
 800376c:	2000022c 	.word	0x2000022c
 8003770:	08004a9d 	.word	0x08004a9d
 8003774:	20000232 	.word	0x20000232
 8003778:	08004aa4 	.word	0x08004aa4
 800377c:	08004ab5 	.word	0x08004ab5
 8003780:	08004abd 	.word	0x08004abd
 8003784:	08004ac3 	.word	0x08004ac3
 8003788:	08004aca 	.word	0x08004aca
 800378c:	08004acc 	.word	0x08004acc
 8003790:	20000263 	.word	0x20000263
 8003794:	20000264 	.word	0x20000264
 8003798:	2000020b 	.word	0x2000020b
 800379c:	08004a75 	.word	0x08004a75
 80037a0:	08004a77 	.word	0x08004a77

080037a4 <with_data_rxbuff>:
 80037a4:	4b04      	ldr	r3, [pc, #16]	; (80037b8 <with_data_rxbuff+0x14>)
 80037a6:	6818      	ldr	r0, [r3, #0]
 80037a8:	4b04      	ldr	r3, [pc, #16]	; (80037bc <with_data_rxbuff+0x18>)
 80037aa:	681b      	ldr	r3, [r3, #0]
 80037ac:	1ac0      	subs	r0, r0, r3
 80037ae:	1e43      	subs	r3, r0, #1
 80037b0:	4198      	sbcs	r0, r3
 80037b2:	b2c0      	uxtb	r0, r0
 80037b4:	4770      	bx	lr
 80037b6:	46c0      	nop			; (mov r8, r8)
 80037b8:	2000020c 	.word	0x2000020c
 80037bc:	20000228 	.word	0x20000228

080037c0 <take_byte_rxbuff>:
 80037c0:	4b08      	ldr	r3, [pc, #32]	; (80037e4 <take_byte_rxbuff+0x24>)
 80037c2:	4909      	ldr	r1, [pc, #36]	; (80037e8 <take_byte_rxbuff+0x28>)
 80037c4:	681a      	ldr	r2, [r3, #0]
 80037c6:	6809      	ldr	r1, [r1, #0]
 80037c8:	2000      	movs	r0, #0
 80037ca:	428a      	cmp	r2, r1
 80037cc:	d009      	beq.n	80037e2 <take_byte_rxbuff+0x22>
 80037ce:	4907      	ldr	r1, [pc, #28]	; (80037ec <take_byte_rxbuff+0x2c>)
 80037d0:	428a      	cmp	r2, r1
 80037d2:	d301      	bcc.n	80037d8 <take_byte_rxbuff+0x18>
 80037d4:	4a06      	ldr	r2, [pc, #24]	; (80037f0 <take_byte_rxbuff+0x30>)
 80037d6:	601a      	str	r2, [r3, #0]
 80037d8:	681a      	ldr	r2, [r3, #0]
 80037da:	1c51      	adds	r1, r2, #1
 80037dc:	6019      	str	r1, [r3, #0]
 80037de:	7810      	ldrb	r0, [r2, #0]
 80037e0:	b2c0      	uxtb	r0, r0
 80037e2:	4770      	bx	lr
 80037e4:	20000228 	.word	0x20000228
 80037e8:	2000020c 	.word	0x2000020c
 80037ec:	20000227 	.word	0x20000227
 80037f0:	20000210 	.word	0x20000210

080037f4 <__errno>:
 80037f4:	4b01      	ldr	r3, [pc, #4]	; (80037fc <__errno+0x8>)
 80037f6:	6818      	ldr	r0, [r3, #0]
 80037f8:	4770      	bx	lr
 80037fa:	46c0      	nop			; (mov r8, r8)
 80037fc:	20000028 	.word	0x20000028

08003800 <__libc_init_array>:
 8003800:	b570      	push	{r4, r5, r6, lr}
 8003802:	2600      	movs	r6, #0
 8003804:	4d0c      	ldr	r5, [pc, #48]	; (8003838 <__libc_init_array+0x38>)
 8003806:	4c0d      	ldr	r4, [pc, #52]	; (800383c <__libc_init_array+0x3c>)
 8003808:	1b64      	subs	r4, r4, r5
 800380a:	10a4      	asrs	r4, r4, #2
 800380c:	42a6      	cmp	r6, r4
 800380e:	d109      	bne.n	8003824 <__libc_init_array+0x24>
 8003810:	2600      	movs	r6, #0
 8003812:	f000 fc5d 	bl	80040d0 <_init>
 8003816:	4d0a      	ldr	r5, [pc, #40]	; (8003840 <__libc_init_array+0x40>)
 8003818:	4c0a      	ldr	r4, [pc, #40]	; (8003844 <__libc_init_array+0x44>)
 800381a:	1b64      	subs	r4, r4, r5
 800381c:	10a4      	asrs	r4, r4, #2
 800381e:	42a6      	cmp	r6, r4
 8003820:	d105      	bne.n	800382e <__libc_init_array+0x2e>
 8003822:	bd70      	pop	{r4, r5, r6, pc}
 8003824:	00b3      	lsls	r3, r6, #2
 8003826:	58eb      	ldr	r3, [r5, r3]
 8003828:	4798      	blx	r3
 800382a:	3601      	adds	r6, #1
 800382c:	e7ee      	b.n	800380c <__libc_init_array+0xc>
 800382e:	00b3      	lsls	r3, r6, #2
 8003830:	58eb      	ldr	r3, [r5, r3]
 8003832:	4798      	blx	r3
 8003834:	3601      	adds	r6, #1
 8003836:	e7f2      	b.n	800381e <__libc_init_array+0x1e>
 8003838:	08004b04 	.word	0x08004b04
 800383c:	08004b04 	.word	0x08004b04
 8003840:	08004b04 	.word	0x08004b04
 8003844:	08004b08 	.word	0x08004b08

08003848 <memcpy>:
 8003848:	2300      	movs	r3, #0
 800384a:	b510      	push	{r4, lr}
 800384c:	429a      	cmp	r2, r3
 800384e:	d100      	bne.n	8003852 <memcpy+0xa>
 8003850:	bd10      	pop	{r4, pc}
 8003852:	5ccc      	ldrb	r4, [r1, r3]
 8003854:	54c4      	strb	r4, [r0, r3]
 8003856:	3301      	adds	r3, #1
 8003858:	e7f8      	b.n	800384c <memcpy+0x4>

0800385a <memset>:
 800385a:	0003      	movs	r3, r0
 800385c:	1882      	adds	r2, r0, r2
 800385e:	4293      	cmp	r3, r2
 8003860:	d100      	bne.n	8003864 <memset+0xa>
 8003862:	4770      	bx	lr
 8003864:	7019      	strb	r1, [r3, #0]
 8003866:	3301      	adds	r3, #1
 8003868:	e7f9      	b.n	800385e <memset+0x4>
	...

0800386c <siprintf>:
 800386c:	b40e      	push	{r1, r2, r3}
 800386e:	b500      	push	{lr}
 8003870:	490b      	ldr	r1, [pc, #44]	; (80038a0 <siprintf+0x34>)
 8003872:	b09c      	sub	sp, #112	; 0x70
 8003874:	ab1d      	add	r3, sp, #116	; 0x74
 8003876:	9002      	str	r0, [sp, #8]
 8003878:	9006      	str	r0, [sp, #24]
 800387a:	9107      	str	r1, [sp, #28]
 800387c:	9104      	str	r1, [sp, #16]
 800387e:	4809      	ldr	r0, [pc, #36]	; (80038a4 <siprintf+0x38>)
 8003880:	4909      	ldr	r1, [pc, #36]	; (80038a8 <siprintf+0x3c>)
 8003882:	cb04      	ldmia	r3!, {r2}
 8003884:	9105      	str	r1, [sp, #20]
 8003886:	6800      	ldr	r0, [r0, #0]
 8003888:	a902      	add	r1, sp, #8
 800388a:	9301      	str	r3, [sp, #4]
 800388c:	f000 f886 	bl	800399c <_svfiprintf_r>
 8003890:	2300      	movs	r3, #0
 8003892:	9a02      	ldr	r2, [sp, #8]
 8003894:	7013      	strb	r3, [r2, #0]
 8003896:	b01c      	add	sp, #112	; 0x70
 8003898:	bc08      	pop	{r3}
 800389a:	b003      	add	sp, #12
 800389c:	4718      	bx	r3
 800389e:	46c0      	nop			; (mov r8, r8)
 80038a0:	7fffffff 	.word	0x7fffffff
 80038a4:	20000028 	.word	0x20000028
 80038a8:	ffff0208 	.word	0xffff0208

080038ac <strcat>:
 80038ac:	0002      	movs	r2, r0
 80038ae:	b510      	push	{r4, lr}
 80038b0:	7813      	ldrb	r3, [r2, #0]
 80038b2:	0014      	movs	r4, r2
 80038b4:	3201      	adds	r2, #1
 80038b6:	2b00      	cmp	r3, #0
 80038b8:	d1fa      	bne.n	80038b0 <strcat+0x4>
 80038ba:	5cca      	ldrb	r2, [r1, r3]
 80038bc:	54e2      	strb	r2, [r4, r3]
 80038be:	3301      	adds	r3, #1
 80038c0:	2a00      	cmp	r2, #0
 80038c2:	d1fa      	bne.n	80038ba <strcat+0xe>
 80038c4:	bd10      	pop	{r4, pc}

080038c6 <strcpy>:
 80038c6:	0003      	movs	r3, r0
 80038c8:	780a      	ldrb	r2, [r1, #0]
 80038ca:	3101      	adds	r1, #1
 80038cc:	701a      	strb	r2, [r3, #0]
 80038ce:	3301      	adds	r3, #1
 80038d0:	2a00      	cmp	r2, #0
 80038d2:	d1f9      	bne.n	80038c8 <strcpy+0x2>
 80038d4:	4770      	bx	lr
	...

080038d8 <__ssputs_r>:
 80038d8:	b5f0      	push	{r4, r5, r6, r7, lr}
 80038da:	688e      	ldr	r6, [r1, #8]
 80038dc:	b085      	sub	sp, #20
 80038de:	0007      	movs	r7, r0
 80038e0:	000c      	movs	r4, r1
 80038e2:	9203      	str	r2, [sp, #12]
 80038e4:	9301      	str	r3, [sp, #4]
 80038e6:	429e      	cmp	r6, r3
 80038e8:	d83c      	bhi.n	8003964 <__ssputs_r+0x8c>
 80038ea:	2390      	movs	r3, #144	; 0x90
 80038ec:	898a      	ldrh	r2, [r1, #12]
 80038ee:	00db      	lsls	r3, r3, #3
 80038f0:	421a      	tst	r2, r3
 80038f2:	d034      	beq.n	800395e <__ssputs_r+0x86>
 80038f4:	2503      	movs	r5, #3
 80038f6:	6909      	ldr	r1, [r1, #16]
 80038f8:	6823      	ldr	r3, [r4, #0]
 80038fa:	1a5b      	subs	r3, r3, r1
 80038fc:	9302      	str	r3, [sp, #8]
 80038fe:	6963      	ldr	r3, [r4, #20]
 8003900:	9802      	ldr	r0, [sp, #8]
 8003902:	435d      	muls	r5, r3
 8003904:	0feb      	lsrs	r3, r5, #31
 8003906:	195d      	adds	r5, r3, r5
 8003908:	9b01      	ldr	r3, [sp, #4]
 800390a:	106d      	asrs	r5, r5, #1
 800390c:	3301      	adds	r3, #1
 800390e:	181b      	adds	r3, r3, r0
 8003910:	42ab      	cmp	r3, r5
 8003912:	d900      	bls.n	8003916 <__ssputs_r+0x3e>
 8003914:	001d      	movs	r5, r3
 8003916:	0553      	lsls	r3, r2, #21
 8003918:	d532      	bpl.n	8003980 <__ssputs_r+0xa8>
 800391a:	0029      	movs	r1, r5
 800391c:	0038      	movs	r0, r7
 800391e:	f000 fb27 	bl	8003f70 <_malloc_r>
 8003922:	1e06      	subs	r6, r0, #0
 8003924:	d109      	bne.n	800393a <__ssputs_r+0x62>
 8003926:	230c      	movs	r3, #12
 8003928:	603b      	str	r3, [r7, #0]
 800392a:	2340      	movs	r3, #64	; 0x40
 800392c:	2001      	movs	r0, #1
 800392e:	89a2      	ldrh	r2, [r4, #12]
 8003930:	4240      	negs	r0, r0
 8003932:	4313      	orrs	r3, r2
 8003934:	81a3      	strh	r3, [r4, #12]
 8003936:	b005      	add	sp, #20
 8003938:	bdf0      	pop	{r4, r5, r6, r7, pc}
 800393a:	9a02      	ldr	r2, [sp, #8]
 800393c:	6921      	ldr	r1, [r4, #16]
 800393e:	f7ff ff83 	bl	8003848 <memcpy>
 8003942:	89a3      	ldrh	r3, [r4, #12]
 8003944:	4a14      	ldr	r2, [pc, #80]	; (8003998 <__ssputs_r+0xc0>)
 8003946:	401a      	ands	r2, r3
 8003948:	2380      	movs	r3, #128	; 0x80
 800394a:	4313      	orrs	r3, r2
 800394c:	81a3      	strh	r3, [r4, #12]
 800394e:	9b02      	ldr	r3, [sp, #8]
 8003950:	6126      	str	r6, [r4, #16]
 8003952:	18f6      	adds	r6, r6, r3
 8003954:	6026      	str	r6, [r4, #0]
 8003956:	6165      	str	r5, [r4, #20]
 8003958:	9e01      	ldr	r6, [sp, #4]
 800395a:	1aed      	subs	r5, r5, r3
 800395c:	60a5      	str	r5, [r4, #8]
 800395e:	9b01      	ldr	r3, [sp, #4]
 8003960:	429e      	cmp	r6, r3
 8003962:	d900      	bls.n	8003966 <__ssputs_r+0x8e>
 8003964:	9e01      	ldr	r6, [sp, #4]
 8003966:	0032      	movs	r2, r6
 8003968:	9903      	ldr	r1, [sp, #12]
 800396a:	6820      	ldr	r0, [r4, #0]
 800396c:	f000 faa3 	bl	8003eb6 <memmove>
 8003970:	68a3      	ldr	r3, [r4, #8]
 8003972:	2000      	movs	r0, #0
 8003974:	1b9b      	subs	r3, r3, r6
 8003976:	60a3      	str	r3, [r4, #8]
 8003978:	6823      	ldr	r3, [r4, #0]
 800397a:	199e      	adds	r6, r3, r6
 800397c:	6026      	str	r6, [r4, #0]
 800397e:	e7da      	b.n	8003936 <__ssputs_r+0x5e>
 8003980:	002a      	movs	r2, r5
 8003982:	0038      	movs	r0, r7
 8003984:	f000 fb52 	bl	800402c <_realloc_r>
 8003988:	1e06      	subs	r6, r0, #0
 800398a:	d1e0      	bne.n	800394e <__ssputs_r+0x76>
 800398c:	0038      	movs	r0, r7
 800398e:	6921      	ldr	r1, [r4, #16]
 8003990:	f000 faa4 	bl	8003edc <_free_r>
 8003994:	e7c7      	b.n	8003926 <__ssputs_r+0x4e>
 8003996:	46c0      	nop			; (mov r8, r8)
 8003998:	fffffb7f 	.word	0xfffffb7f

0800399c <_svfiprintf_r>:
 800399c:	b5f0      	push	{r4, r5, r6, r7, lr}
 800399e:	b0a1      	sub	sp, #132	; 0x84
 80039a0:	9003      	str	r0, [sp, #12]
 80039a2:	001d      	movs	r5, r3
 80039a4:	898b      	ldrh	r3, [r1, #12]
 80039a6:	000f      	movs	r7, r1
 80039a8:	0016      	movs	r6, r2
 80039aa:	061b      	lsls	r3, r3, #24
 80039ac:	d511      	bpl.n	80039d2 <_svfiprintf_r+0x36>
 80039ae:	690b      	ldr	r3, [r1, #16]
 80039b0:	2b00      	cmp	r3, #0
 80039b2:	d10e      	bne.n	80039d2 <_svfiprintf_r+0x36>
 80039b4:	2140      	movs	r1, #64	; 0x40
 80039b6:	f000 fadb 	bl	8003f70 <_malloc_r>
 80039ba:	6038      	str	r0, [r7, #0]
 80039bc:	6138      	str	r0, [r7, #16]
 80039be:	2800      	cmp	r0, #0
 80039c0:	d105      	bne.n	80039ce <_svfiprintf_r+0x32>
 80039c2:	230c      	movs	r3, #12
 80039c4:	9a03      	ldr	r2, [sp, #12]
 80039c6:	3801      	subs	r0, #1
 80039c8:	6013      	str	r3, [r2, #0]
 80039ca:	b021      	add	sp, #132	; 0x84
 80039cc:	bdf0      	pop	{r4, r5, r6, r7, pc}
 80039ce:	2340      	movs	r3, #64	; 0x40
 80039d0:	617b      	str	r3, [r7, #20]
 80039d2:	2300      	movs	r3, #0
 80039d4:	ac08      	add	r4, sp, #32
 80039d6:	6163      	str	r3, [r4, #20]
 80039d8:	3320      	adds	r3, #32
 80039da:	7663      	strb	r3, [r4, #25]
 80039dc:	3310      	adds	r3, #16
 80039de:	76a3      	strb	r3, [r4, #26]
 80039e0:	9507      	str	r5, [sp, #28]
 80039e2:	0035      	movs	r5, r6
 80039e4:	782b      	ldrb	r3, [r5, #0]
 80039e6:	2b00      	cmp	r3, #0
 80039e8:	d001      	beq.n	80039ee <_svfiprintf_r+0x52>
 80039ea:	2b25      	cmp	r3, #37	; 0x25
 80039ec:	d147      	bne.n	8003a7e <_svfiprintf_r+0xe2>
 80039ee:	1bab      	subs	r3, r5, r6
 80039f0:	9305      	str	r3, [sp, #20]
 80039f2:	42b5      	cmp	r5, r6
 80039f4:	d00c      	beq.n	8003a10 <_svfiprintf_r+0x74>
 80039f6:	0032      	movs	r2, r6
 80039f8:	0039      	movs	r1, r7
 80039fa:	9803      	ldr	r0, [sp, #12]
 80039fc:	f7ff ff6c 	bl	80038d8 <__ssputs_r>
 8003a00:	1c43      	adds	r3, r0, #1
 8003a02:	d100      	bne.n	8003a06 <_svfiprintf_r+0x6a>
 8003a04:	e0ae      	b.n	8003b64 <_svfiprintf_r+0x1c8>
 8003a06:	6962      	ldr	r2, [r4, #20]
 8003a08:	9b05      	ldr	r3, [sp, #20]
 8003a0a:	4694      	mov	ip, r2
 8003a0c:	4463      	add	r3, ip
 8003a0e:	6163      	str	r3, [r4, #20]
 8003a10:	782b      	ldrb	r3, [r5, #0]
 8003a12:	2b00      	cmp	r3, #0
 8003a14:	d100      	bne.n	8003a18 <_svfiprintf_r+0x7c>
 8003a16:	e0a5      	b.n	8003b64 <_svfiprintf_r+0x1c8>
 8003a18:	2201      	movs	r2, #1
 8003a1a:	2300      	movs	r3, #0
 8003a1c:	4252      	negs	r2, r2
 8003a1e:	6062      	str	r2, [r4, #4]
 8003a20:	a904      	add	r1, sp, #16
 8003a22:	3254      	adds	r2, #84	; 0x54
 8003a24:	1852      	adds	r2, r2, r1
 8003a26:	1c6e      	adds	r6, r5, #1
 8003a28:	6023      	str	r3, [r4, #0]
 8003a2a:	60e3      	str	r3, [r4, #12]
 8003a2c:	60a3      	str	r3, [r4, #8]
 8003a2e:	7013      	strb	r3, [r2, #0]
 8003a30:	65a3      	str	r3, [r4, #88]	; 0x58
 8003a32:	2205      	movs	r2, #5
 8003a34:	7831      	ldrb	r1, [r6, #0]
 8003a36:	4854      	ldr	r0, [pc, #336]	; (8003b88 <_svfiprintf_r+0x1ec>)
 8003a38:	f000 fa32 	bl	8003ea0 <memchr>
 8003a3c:	1c75      	adds	r5, r6, #1
 8003a3e:	2800      	cmp	r0, #0
 8003a40:	d11f      	bne.n	8003a82 <_svfiprintf_r+0xe6>
 8003a42:	6822      	ldr	r2, [r4, #0]
 8003a44:	06d3      	lsls	r3, r2, #27
 8003a46:	d504      	bpl.n	8003a52 <_svfiprintf_r+0xb6>
 8003a48:	2353      	movs	r3, #83	; 0x53
 8003a4a:	a904      	add	r1, sp, #16
 8003a4c:	185b      	adds	r3, r3, r1
 8003a4e:	2120      	movs	r1, #32
 8003a50:	7019      	strb	r1, [r3, #0]
 8003a52:	0713      	lsls	r3, r2, #28
 8003a54:	d504      	bpl.n	8003a60 <_svfiprintf_r+0xc4>
 8003a56:	2353      	movs	r3, #83	; 0x53
 8003a58:	a904      	add	r1, sp, #16
 8003a5a:	185b      	adds	r3, r3, r1
 8003a5c:	212b      	movs	r1, #43	; 0x2b
 8003a5e:	7019      	strb	r1, [r3, #0]
 8003a60:	7833      	ldrb	r3, [r6, #0]
 8003a62:	2b2a      	cmp	r3, #42	; 0x2a
 8003a64:	d016      	beq.n	8003a94 <_svfiprintf_r+0xf8>
 8003a66:	0035      	movs	r5, r6
 8003a68:	2100      	movs	r1, #0
 8003a6a:	200a      	movs	r0, #10
 8003a6c:	68e3      	ldr	r3, [r4, #12]
 8003a6e:	782a      	ldrb	r2, [r5, #0]
 8003a70:	1c6e      	adds	r6, r5, #1
 8003a72:	3a30      	subs	r2, #48	; 0x30
 8003a74:	2a09      	cmp	r2, #9
 8003a76:	d94e      	bls.n	8003b16 <_svfiprintf_r+0x17a>
 8003a78:	2900      	cmp	r1, #0
 8003a7a:	d111      	bne.n	8003aa0 <_svfiprintf_r+0x104>
 8003a7c:	e017      	b.n	8003aae <_svfiprintf_r+0x112>
 8003a7e:	3501      	adds	r5, #1
 8003a80:	e7b0      	b.n	80039e4 <_svfiprintf_r+0x48>
 8003a82:	4b41      	ldr	r3, [pc, #260]	; (8003b88 <_svfiprintf_r+0x1ec>)
 8003a84:	6822      	ldr	r2, [r4, #0]
 8003a86:	1ac0      	subs	r0, r0, r3
 8003a88:	2301      	movs	r3, #1
 8003a8a:	4083      	lsls	r3, r0
 8003a8c:	4313      	orrs	r3, r2
 8003a8e:	002e      	movs	r6, r5
 8003a90:	6023      	str	r3, [r4, #0]
 8003a92:	e7ce      	b.n	8003a32 <_svfiprintf_r+0x96>
 8003a94:	9b07      	ldr	r3, [sp, #28]
 8003a96:	1d19      	adds	r1, r3, #4
 8003a98:	681b      	ldr	r3, [r3, #0]
 8003a9a:	9107      	str	r1, [sp, #28]
 8003a9c:	2b00      	cmp	r3, #0
 8003a9e:	db01      	blt.n	8003aa4 <_svfiprintf_r+0x108>
 8003aa0:	930b      	str	r3, [sp, #44]	; 0x2c
 8003aa2:	e004      	b.n	8003aae <_svfiprintf_r+0x112>
 8003aa4:	425b      	negs	r3, r3
 8003aa6:	60e3      	str	r3, [r4, #12]
 8003aa8:	2302      	movs	r3, #2
 8003aaa:	4313      	orrs	r3, r2
 8003aac:	6023      	str	r3, [r4, #0]
 8003aae:	782b      	ldrb	r3, [r5, #0]
 8003ab0:	2b2e      	cmp	r3, #46	; 0x2e
 8003ab2:	d10a      	bne.n	8003aca <_svfiprintf_r+0x12e>
 8003ab4:	786b      	ldrb	r3, [r5, #1]
 8003ab6:	2b2a      	cmp	r3, #42	; 0x2a
 8003ab8:	d135      	bne.n	8003b26 <_svfiprintf_r+0x18a>
 8003aba:	9b07      	ldr	r3, [sp, #28]
 8003abc:	3502      	adds	r5, #2
 8003abe:	1d1a      	adds	r2, r3, #4
 8003ac0:	681b      	ldr	r3, [r3, #0]
 8003ac2:	9207      	str	r2, [sp, #28]
 8003ac4:	2b00      	cmp	r3, #0
 8003ac6:	db2b      	blt.n	8003b20 <_svfiprintf_r+0x184>
 8003ac8:	9309      	str	r3, [sp, #36]	; 0x24
 8003aca:	4e30      	ldr	r6, [pc, #192]	; (8003b8c <_svfiprintf_r+0x1f0>)
 8003acc:	2203      	movs	r2, #3
 8003ace:	0030      	movs	r0, r6
 8003ad0:	7829      	ldrb	r1, [r5, #0]
 8003ad2:	f000 f9e5 	bl	8003ea0 <memchr>
 8003ad6:	2800      	cmp	r0, #0
 8003ad8:	d006      	beq.n	8003ae8 <_svfiprintf_r+0x14c>
 8003ada:	2340      	movs	r3, #64	; 0x40
 8003adc:	1b80      	subs	r0, r0, r6
 8003ade:	4083      	lsls	r3, r0
 8003ae0:	6822      	ldr	r2, [r4, #0]
 8003ae2:	3501      	adds	r5, #1
 8003ae4:	4313      	orrs	r3, r2
 8003ae6:	6023      	str	r3, [r4, #0]
 8003ae8:	7829      	ldrb	r1, [r5, #0]
 8003aea:	2206      	movs	r2, #6
 8003aec:	4828      	ldr	r0, [pc, #160]	; (8003b90 <_svfiprintf_r+0x1f4>)
 8003aee:	1c6e      	adds	r6, r5, #1
 8003af0:	7621      	strb	r1, [r4, #24]
 8003af2:	f000 f9d5 	bl	8003ea0 <memchr>
 8003af6:	2800      	cmp	r0, #0
 8003af8:	d03c      	beq.n	8003b74 <_svfiprintf_r+0x1d8>
 8003afa:	4b26      	ldr	r3, [pc, #152]	; (8003b94 <_svfiprintf_r+0x1f8>)
 8003afc:	2b00      	cmp	r3, #0
 8003afe:	d125      	bne.n	8003b4c <_svfiprintf_r+0x1b0>
 8003b00:	2207      	movs	r2, #7
 8003b02:	9b07      	ldr	r3, [sp, #28]
 8003b04:	3307      	adds	r3, #7
 8003b06:	4393      	bics	r3, r2
 8003b08:	3308      	adds	r3, #8
 8003b0a:	9307      	str	r3, [sp, #28]
 8003b0c:	6963      	ldr	r3, [r4, #20]
 8003b0e:	9a04      	ldr	r2, [sp, #16]
 8003b10:	189b      	adds	r3, r3, r2
 8003b12:	6163      	str	r3, [r4, #20]
 8003b14:	e765      	b.n	80039e2 <_svfiprintf_r+0x46>
 8003b16:	4343      	muls	r3, r0
 8003b18:	0035      	movs	r5, r6
 8003b1a:	2101      	movs	r1, #1
 8003b1c:	189b      	adds	r3, r3, r2
 8003b1e:	e7a6      	b.n	8003a6e <_svfiprintf_r+0xd2>
 8003b20:	2301      	movs	r3, #1
 8003b22:	425b      	negs	r3, r3
 8003b24:	e7d0      	b.n	8003ac8 <_svfiprintf_r+0x12c>
 8003b26:	2300      	movs	r3, #0
 8003b28:	200a      	movs	r0, #10
 8003b2a:	001a      	movs	r2, r3
 8003b2c:	3501      	adds	r5, #1
 8003b2e:	6063      	str	r3, [r4, #4]
 8003b30:	7829      	ldrb	r1, [r5, #0]
 8003b32:	1c6e      	adds	r6, r5, #1
 8003b34:	3930      	subs	r1, #48	; 0x30
 8003b36:	2909      	cmp	r1, #9
 8003b38:	d903      	bls.n	8003b42 <_svfiprintf_r+0x1a6>
 8003b3a:	2b00      	cmp	r3, #0
 8003b3c:	d0c5      	beq.n	8003aca <_svfiprintf_r+0x12e>
 8003b3e:	9209      	str	r2, [sp, #36]	; 0x24
 8003b40:	e7c3      	b.n	8003aca <_svfiprintf_r+0x12e>
 8003b42:	4342      	muls	r2, r0
 8003b44:	0035      	movs	r5, r6
 8003b46:	2301      	movs	r3, #1
 8003b48:	1852      	adds	r2, r2, r1
 8003b4a:	e7f1      	b.n	8003b30 <_svfiprintf_r+0x194>
 8003b4c:	ab07      	add	r3, sp, #28
 8003b4e:	9300      	str	r3, [sp, #0]
 8003b50:	003a      	movs	r2, r7
 8003b52:	0021      	movs	r1, r4
 8003b54:	4b10      	ldr	r3, [pc, #64]	; (8003b98 <_svfiprintf_r+0x1fc>)
 8003b56:	9803      	ldr	r0, [sp, #12]
 8003b58:	e000      	b.n	8003b5c <_svfiprintf_r+0x1c0>
 8003b5a:	bf00      	nop
 8003b5c:	9004      	str	r0, [sp, #16]
 8003b5e:	9b04      	ldr	r3, [sp, #16]
 8003b60:	3301      	adds	r3, #1
 8003b62:	d1d3      	bne.n	8003b0c <_svfiprintf_r+0x170>
 8003b64:	89bb      	ldrh	r3, [r7, #12]
 8003b66:	980d      	ldr	r0, [sp, #52]	; 0x34
 8003b68:	065b      	lsls	r3, r3, #25
 8003b6a:	d400      	bmi.n	8003b6e <_svfiprintf_r+0x1d2>
 8003b6c:	e72d      	b.n	80039ca <_svfiprintf_r+0x2e>
 8003b6e:	2001      	movs	r0, #1
 8003b70:	4240      	negs	r0, r0
 8003b72:	e72a      	b.n	80039ca <_svfiprintf_r+0x2e>
 8003b74:	ab07      	add	r3, sp, #28
 8003b76:	9300      	str	r3, [sp, #0]
 8003b78:	003a      	movs	r2, r7
 8003b7a:	0021      	movs	r1, r4
 8003b7c:	4b06      	ldr	r3, [pc, #24]	; (8003b98 <_svfiprintf_r+0x1fc>)
 8003b7e:	9803      	ldr	r0, [sp, #12]
 8003b80:	f000 f87c 	bl	8003c7c <_printf_i>
 8003b84:	e7ea      	b.n	8003b5c <_svfiprintf_r+0x1c0>
 8003b86:	46c0      	nop			; (mov r8, r8)
 8003b88:	08004ace 	.word	0x08004ace
 8003b8c:	08004ad4 	.word	0x08004ad4
 8003b90:	08004ad8 	.word	0x08004ad8
 8003b94:	00000000 	.word	0x00000000
 8003b98:	080038d9 	.word	0x080038d9

08003b9c <_printf_common>:
 8003b9c:	b5f7      	push	{r0, r1, r2, r4, r5, r6, r7, lr}
 8003b9e:	0015      	movs	r5, r2
 8003ba0:	9301      	str	r3, [sp, #4]
 8003ba2:	688a      	ldr	r2, [r1, #8]
 8003ba4:	690b      	ldr	r3, [r1, #16]
 8003ba6:	000c      	movs	r4, r1
 8003ba8:	9000      	str	r0, [sp, #0]
 8003baa:	4293      	cmp	r3, r2
 8003bac:	da00      	bge.n	8003bb0 <_printf_common+0x14>
 8003bae:	0013      	movs	r3, r2
 8003bb0:	0022      	movs	r2, r4
 8003bb2:	602b      	str	r3, [r5, #0]
 8003bb4:	3243      	adds	r2, #67	; 0x43
 8003bb6:	7812      	ldrb	r2, [r2, #0]
 8003bb8:	2a00      	cmp	r2, #0
 8003bba:	d001      	beq.n	8003bc0 <_printf_common+0x24>
 8003bbc:	3301      	adds	r3, #1
 8003bbe:	602b      	str	r3, [r5, #0]
 8003bc0:	6823      	ldr	r3, [r4, #0]
 8003bc2:	069b      	lsls	r3, r3, #26
 8003bc4:	d502      	bpl.n	8003bcc <_printf_common+0x30>
 8003bc6:	682b      	ldr	r3, [r5, #0]
 8003bc8:	3302      	adds	r3, #2
 8003bca:	602b      	str	r3, [r5, #0]
 8003bcc:	6822      	ldr	r2, [r4, #0]
 8003bce:	2306      	movs	r3, #6
 8003bd0:	0017      	movs	r7, r2
 8003bd2:	401f      	ands	r7, r3
 8003bd4:	421a      	tst	r2, r3
 8003bd6:	d027      	beq.n	8003c28 <_printf_common+0x8c>
 8003bd8:	0023      	movs	r3, r4
 8003bda:	3343      	adds	r3, #67	; 0x43
 8003bdc:	781b      	ldrb	r3, [r3, #0]
 8003bde:	1e5a      	subs	r2, r3, #1
 8003be0:	4193      	sbcs	r3, r2
 8003be2:	6822      	ldr	r2, [r4, #0]
 8003be4:	0692      	lsls	r2, r2, #26
 8003be6:	d430      	bmi.n	8003c4a <_printf_common+0xae>
 8003be8:	0022      	movs	r2, r4
 8003bea:	9901      	ldr	r1, [sp, #4]
 8003bec:	9800      	ldr	r0, [sp, #0]
 8003bee:	9e08      	ldr	r6, [sp, #32]
 8003bf0:	3243      	adds	r2, #67	; 0x43
 8003bf2:	47b0      	blx	r6
 8003bf4:	1c43      	adds	r3, r0, #1
 8003bf6:	d025      	beq.n	8003c44 <_printf_common+0xa8>
 8003bf8:	2306      	movs	r3, #6
 8003bfa:	6820      	ldr	r0, [r4, #0]
 8003bfc:	682a      	ldr	r2, [r5, #0]
 8003bfe:	68e1      	ldr	r1, [r4, #12]
 8003c00:	2500      	movs	r5, #0
 8003c02:	4003      	ands	r3, r0
 8003c04:	2b04      	cmp	r3, #4
 8003c06:	d103      	bne.n	8003c10 <_printf_common+0x74>
 8003c08:	1a8d      	subs	r5, r1, r2
 8003c0a:	43eb      	mvns	r3, r5
 8003c0c:	17db      	asrs	r3, r3, #31
 8003c0e:	401d      	ands	r5, r3
 8003c10:	68a3      	ldr	r3, [r4, #8]
 8003c12:	6922      	ldr	r2, [r4, #16]
 8003c14:	4293      	cmp	r3, r2
 8003c16:	dd01      	ble.n	8003c1c <_printf_common+0x80>
 8003c18:	1a9b      	subs	r3, r3, r2
 8003c1a:	18ed      	adds	r5, r5, r3
 8003c1c:	2700      	movs	r7, #0
 8003c1e:	42bd      	cmp	r5, r7
 8003c20:	d120      	bne.n	8003c64 <_printf_common+0xc8>
 8003c22:	2000      	movs	r0, #0
 8003c24:	e010      	b.n	8003c48 <_printf_common+0xac>
 8003c26:	3701      	adds	r7, #1
 8003c28:	68e3      	ldr	r3, [r4, #12]
 8003c2a:	682a      	ldr	r2, [r5, #0]
 8003c2c:	1a9b      	subs	r3, r3, r2
 8003c2e:	42bb      	cmp	r3, r7
 8003c30:	ddd2      	ble.n	8003bd8 <_printf_common+0x3c>
 8003c32:	0022      	movs	r2, r4
 8003c34:	2301      	movs	r3, #1
 8003c36:	9901      	ldr	r1, [sp, #4]
 8003c38:	9800      	ldr	r0, [sp, #0]
 8003c3a:	9e08      	ldr	r6, [sp, #32]
 8003c3c:	3219      	adds	r2, #25
 8003c3e:	47b0      	blx	r6
 8003c40:	1c43      	adds	r3, r0, #1
 8003c42:	d1f0      	bne.n	8003c26 <_printf_common+0x8a>
 8003c44:	2001      	movs	r0, #1
 8003c46:	4240      	negs	r0, r0
 8003c48:	bdfe      	pop	{r1, r2, r3, r4, r5, r6, r7, pc}
 8003c4a:	2030      	movs	r0, #48	; 0x30
 8003c4c:	18e1      	adds	r1, r4, r3
 8003c4e:	3143      	adds	r1, #67	; 0x43
 8003c50:	7008      	strb	r0, [r1, #0]
 8003c52:	0021      	movs	r1, r4
 8003c54:	1c5a      	adds	r2, r3, #1
 8003c56:	3145      	adds	r1, #69	; 0x45
 8003c58:	7809      	ldrb	r1, [r1, #0]
 8003c5a:	18a2      	adds	r2, r4, r2
 8003c5c:	3243      	adds	r2, #67	; 0x43
 8003c5e:	3302      	adds	r3, #2
 8003c60:	7011      	strb	r1, [r2, #0]
 8003c62:	e7c1      	b.n	8003be8 <_printf_common+0x4c>
 8003c64:	0022      	movs	r2, r4
 8003c66:	2301      	movs	r3, #1
 8003c68:	9901      	ldr	r1, [sp, #4]
 8003c6a:	9800      	ldr	r0, [sp, #0]
 8003c6c:	9e08      	ldr	r6, [sp, #32]
 8003c6e:	321a      	adds	r2, #26
 8003c70:	47b0      	blx	r6
 8003c72:	1c43      	adds	r3, r0, #1
 8003c74:	d0e6      	beq.n	8003c44 <_printf_common+0xa8>
 8003c76:	3701      	adds	r7, #1
 8003c78:	e7d1      	b.n	8003c1e <_printf_common+0x82>
	...

08003c7c <_printf_i>:
 8003c7c:	b5f0      	push	{r4, r5, r6, r7, lr}
 8003c7e:	b08b      	sub	sp, #44	; 0x2c
 8003c80:	9206      	str	r2, [sp, #24]
 8003c82:	000a      	movs	r2, r1
 8003c84:	3243      	adds	r2, #67	; 0x43
 8003c86:	9307      	str	r3, [sp, #28]
 8003c88:	9005      	str	r0, [sp, #20]
 8003c8a:	9204      	str	r2, [sp, #16]
 8003c8c:	7e0a      	ldrb	r2, [r1, #24]
 8003c8e:	000c      	movs	r4, r1
 8003c90:	9b10      	ldr	r3, [sp, #64]	; 0x40
 8003c92:	2a78      	cmp	r2, #120	; 0x78
 8003c94:	d806      	bhi.n	8003ca4 <_printf_i+0x28>
 8003c96:	2a62      	cmp	r2, #98	; 0x62
 8003c98:	d808      	bhi.n	8003cac <_printf_i+0x30>
 8003c9a:	2a00      	cmp	r2, #0
 8003c9c:	d100      	bne.n	8003ca0 <_printf_i+0x24>
 8003c9e:	e0c0      	b.n	8003e22 <_printf_i+0x1a6>
 8003ca0:	2a58      	cmp	r2, #88	; 0x58
 8003ca2:	d052      	beq.n	8003d4a <_printf_i+0xce>
 8003ca4:	0026      	movs	r6, r4
 8003ca6:	3642      	adds	r6, #66	; 0x42
 8003ca8:	7032      	strb	r2, [r6, #0]
 8003caa:	e022      	b.n	8003cf2 <_printf_i+0x76>
 8003cac:	0010      	movs	r0, r2
 8003cae:	3863      	subs	r0, #99	; 0x63
 8003cb0:	2815      	cmp	r0, #21
 8003cb2:	d8f7      	bhi.n	8003ca4 <_printf_i+0x28>
 8003cb4:	f7fc fa3a 	bl	800012c <__gnu_thumb1_case_shi>
 8003cb8:	001f0016 	.word	0x001f0016
 8003cbc:	fff6fff6 	.word	0xfff6fff6
 8003cc0:	fff6fff6 	.word	0xfff6fff6
 8003cc4:	fff6001f 	.word	0xfff6001f
 8003cc8:	fff6fff6 	.word	0xfff6fff6
 8003ccc:	00a8fff6 	.word	0x00a8fff6
 8003cd0:	009a0036 	.word	0x009a0036
 8003cd4:	fff6fff6 	.word	0xfff6fff6
 8003cd8:	fff600b9 	.word	0xfff600b9
 8003cdc:	fff60036 	.word	0xfff60036
 8003ce0:	009efff6 	.word	0x009efff6
 8003ce4:	0026      	movs	r6, r4
 8003ce6:	681a      	ldr	r2, [r3, #0]
 8003ce8:	3642      	adds	r6, #66	; 0x42
 8003cea:	1d11      	adds	r1, r2, #4
 8003cec:	6019      	str	r1, [r3, #0]
 8003cee:	6813      	ldr	r3, [r2, #0]
 8003cf0:	7033      	strb	r3, [r6, #0]
 8003cf2:	2301      	movs	r3, #1
 8003cf4:	e0a7      	b.n	8003e46 <_printf_i+0x1ca>
 8003cf6:	6808      	ldr	r0, [r1, #0]
 8003cf8:	6819      	ldr	r1, [r3, #0]
 8003cfa:	1d0a      	adds	r2, r1, #4
 8003cfc:	0605      	lsls	r5, r0, #24
 8003cfe:	d50b      	bpl.n	8003d18 <_printf_i+0x9c>
 8003d00:	680d      	ldr	r5, [r1, #0]
 8003d02:	601a      	str	r2, [r3, #0]
 8003d04:	2d00      	cmp	r5, #0
 8003d06:	da03      	bge.n	8003d10 <_printf_i+0x94>
 8003d08:	232d      	movs	r3, #45	; 0x2d
 8003d0a:	9a04      	ldr	r2, [sp, #16]
 8003d0c:	426d      	negs	r5, r5
 8003d0e:	7013      	strb	r3, [r2, #0]
 8003d10:	4b61      	ldr	r3, [pc, #388]	; (8003e98 <_printf_i+0x21c>)
 8003d12:	270a      	movs	r7, #10
 8003d14:	9303      	str	r3, [sp, #12]
 8003d16:	e032      	b.n	8003d7e <_printf_i+0x102>
 8003d18:	680d      	ldr	r5, [r1, #0]
 8003d1a:	601a      	str	r2, [r3, #0]
 8003d1c:	0641      	lsls	r1, r0, #25
 8003d1e:	d5f1      	bpl.n	8003d04 <_printf_i+0x88>
 8003d20:	b22d      	sxth	r5, r5
 8003d22:	e7ef      	b.n	8003d04 <_printf_i+0x88>
 8003d24:	680d      	ldr	r5, [r1, #0]
 8003d26:	6819      	ldr	r1, [r3, #0]
 8003d28:	1d08      	adds	r0, r1, #4
 8003d2a:	6018      	str	r0, [r3, #0]
 8003d2c:	062e      	lsls	r6, r5, #24
 8003d2e:	d501      	bpl.n	8003d34 <_printf_i+0xb8>
 8003d30:	680d      	ldr	r5, [r1, #0]
 8003d32:	e003      	b.n	8003d3c <_printf_i+0xc0>
 8003d34:	066d      	lsls	r5, r5, #25
 8003d36:	d5fb      	bpl.n	8003d30 <_printf_i+0xb4>
 8003d38:	680d      	ldr	r5, [r1, #0]
 8003d3a:	b2ad      	uxth	r5, r5
 8003d3c:	4b56      	ldr	r3, [pc, #344]	; (8003e98 <_printf_i+0x21c>)
 8003d3e:	270a      	movs	r7, #10
 8003d40:	9303      	str	r3, [sp, #12]
 8003d42:	2a6f      	cmp	r2, #111	; 0x6f
 8003d44:	d117      	bne.n	8003d76 <_printf_i+0xfa>
 8003d46:	2708      	movs	r7, #8
 8003d48:	e015      	b.n	8003d76 <_printf_i+0xfa>
 8003d4a:	3145      	adds	r1, #69	; 0x45
 8003d4c:	700a      	strb	r2, [r1, #0]
 8003d4e:	4a52      	ldr	r2, [pc, #328]	; (8003e98 <_printf_i+0x21c>)
 8003d50:	9203      	str	r2, [sp, #12]
 8003d52:	681a      	ldr	r2, [r3, #0]
 8003d54:	6821      	ldr	r1, [r4, #0]
 8003d56:	ca20      	ldmia	r2!, {r5}
 8003d58:	601a      	str	r2, [r3, #0]
 8003d5a:	0608      	lsls	r0, r1, #24
 8003d5c:	d550      	bpl.n	8003e00 <_printf_i+0x184>
 8003d5e:	07cb      	lsls	r3, r1, #31
 8003d60:	d502      	bpl.n	8003d68 <_printf_i+0xec>
 8003d62:	2320      	movs	r3, #32
 8003d64:	4319      	orrs	r1, r3
 8003d66:	6021      	str	r1, [r4, #0]
 8003d68:	2710      	movs	r7, #16
 8003d6a:	2d00      	cmp	r5, #0
 8003d6c:	d103      	bne.n	8003d76 <_printf_i+0xfa>
 8003d6e:	2320      	movs	r3, #32
 8003d70:	6822      	ldr	r2, [r4, #0]
 8003d72:	439a      	bics	r2, r3
 8003d74:	6022      	str	r2, [r4, #0]
 8003d76:	0023      	movs	r3, r4
 8003d78:	2200      	movs	r2, #0
 8003d7a:	3343      	adds	r3, #67	; 0x43
 8003d7c:	701a      	strb	r2, [r3, #0]
 8003d7e:	6863      	ldr	r3, [r4, #4]
 8003d80:	60a3      	str	r3, [r4, #8]
 8003d82:	2b00      	cmp	r3, #0
 8003d84:	db03      	blt.n	8003d8e <_printf_i+0x112>
 8003d86:	2204      	movs	r2, #4
 8003d88:	6821      	ldr	r1, [r4, #0]
 8003d8a:	4391      	bics	r1, r2
 8003d8c:	6021      	str	r1, [r4, #0]
 8003d8e:	2d00      	cmp	r5, #0
 8003d90:	d102      	bne.n	8003d98 <_printf_i+0x11c>
 8003d92:	9e04      	ldr	r6, [sp, #16]
 8003d94:	2b00      	cmp	r3, #0
 8003d96:	d00c      	beq.n	8003db2 <_printf_i+0x136>
 8003d98:	9e04      	ldr	r6, [sp, #16]
 8003d9a:	0028      	movs	r0, r5
 8003d9c:	0039      	movs	r1, r7
 8003d9e:	f7fc fa55 	bl	800024c <__aeabi_uidivmod>
 8003da2:	9b03      	ldr	r3, [sp, #12]
 8003da4:	3e01      	subs	r6, #1
 8003da6:	5c5b      	ldrb	r3, [r3, r1]
 8003da8:	7033      	strb	r3, [r6, #0]
 8003daa:	002b      	movs	r3, r5
 8003dac:	0005      	movs	r5, r0
 8003dae:	429f      	cmp	r7, r3
 8003db0:	d9f3      	bls.n	8003d9a <_printf_i+0x11e>
 8003db2:	2f08      	cmp	r7, #8
 8003db4:	d109      	bne.n	8003dca <_printf_i+0x14e>
 8003db6:	6823      	ldr	r3, [r4, #0]
 8003db8:	07db      	lsls	r3, r3, #31
 8003dba:	d506      	bpl.n	8003dca <_printf_i+0x14e>
 8003dbc:	6863      	ldr	r3, [r4, #4]
 8003dbe:	6922      	ldr	r2, [r4, #16]
 8003dc0:	4293      	cmp	r3, r2
 8003dc2:	dc02      	bgt.n	8003dca <_printf_i+0x14e>
 8003dc4:	2330      	movs	r3, #48	; 0x30
 8003dc6:	3e01      	subs	r6, #1
 8003dc8:	7033      	strb	r3, [r6, #0]
 8003dca:	9b04      	ldr	r3, [sp, #16]
 8003dcc:	1b9b      	subs	r3, r3, r6
 8003dce:	6123      	str	r3, [r4, #16]
 8003dd0:	9b07      	ldr	r3, [sp, #28]
 8003dd2:	0021      	movs	r1, r4
 8003dd4:	9300      	str	r3, [sp, #0]
 8003dd6:	9805      	ldr	r0, [sp, #20]
 8003dd8:	9b06      	ldr	r3, [sp, #24]
 8003dda:	aa09      	add	r2, sp, #36	; 0x24
 8003ddc:	f7ff fede 	bl	8003b9c <_printf_common>
 8003de0:	1c43      	adds	r3, r0, #1
 8003de2:	d135      	bne.n	8003e50 <_printf_i+0x1d4>
 8003de4:	2001      	movs	r0, #1
 8003de6:	4240      	negs	r0, r0
 8003de8:	b00b      	add	sp, #44	; 0x2c
 8003dea:	bdf0      	pop	{r4, r5, r6, r7, pc}
 8003dec:	2220      	movs	r2, #32
 8003dee:	6809      	ldr	r1, [r1, #0]
 8003df0:	430a      	orrs	r2, r1
 8003df2:	6022      	str	r2, [r4, #0]
 8003df4:	0022      	movs	r2, r4
 8003df6:	2178      	movs	r1, #120	; 0x78
 8003df8:	3245      	adds	r2, #69	; 0x45
 8003dfa:	7011      	strb	r1, [r2, #0]
 8003dfc:	4a27      	ldr	r2, [pc, #156]	; (8003e9c <_printf_i+0x220>)
 8003dfe:	e7a7      	b.n	8003d50 <_printf_i+0xd4>
 8003e00:	0648      	lsls	r0, r1, #25
 8003e02:	d5ac      	bpl.n	8003d5e <_printf_i+0xe2>
 8003e04:	b2ad      	uxth	r5, r5
 8003e06:	e7aa      	b.n	8003d5e <_printf_i+0xe2>
 8003e08:	681a      	ldr	r2, [r3, #0]
 8003e0a:	680d      	ldr	r5, [r1, #0]
 8003e0c:	1d10      	adds	r0, r2, #4
 8003e0e:	6949      	ldr	r1, [r1, #20]
 8003e10:	6018      	str	r0, [r3, #0]
 8003e12:	6813      	ldr	r3, [r2, #0]
 8003e14:	062e      	lsls	r6, r5, #24
 8003e16:	d501      	bpl.n	8003e1c <_printf_i+0x1a0>
 8003e18:	6019      	str	r1, [r3, #0]
 8003e1a:	e002      	b.n	8003e22 <_printf_i+0x1a6>
 8003e1c:	066d      	lsls	r5, r5, #25
 8003e1e:	d5fb      	bpl.n	8003e18 <_printf_i+0x19c>
 8003e20:	8019      	strh	r1, [r3, #0]
 8003e22:	2300      	movs	r3, #0
 8003e24:	9e04      	ldr	r6, [sp, #16]
 8003e26:	6123      	str	r3, [r4, #16]
 8003e28:	e7d2      	b.n	8003dd0 <_printf_i+0x154>
 8003e2a:	681a      	ldr	r2, [r3, #0]
 8003e2c:	1d11      	adds	r1, r2, #4
 8003e2e:	6019      	str	r1, [r3, #0]
 8003e30:	6816      	ldr	r6, [r2, #0]
 8003e32:	2100      	movs	r1, #0
 8003e34:	0030      	movs	r0, r6
 8003e36:	6862      	ldr	r2, [r4, #4]
 8003e38:	f000 f832 	bl	8003ea0 <memchr>
 8003e3c:	2800      	cmp	r0, #0
 8003e3e:	d001      	beq.n	8003e44 <_printf_i+0x1c8>
 8003e40:	1b80      	subs	r0, r0, r6
 8003e42:	6060      	str	r0, [r4, #4]
 8003e44:	6863      	ldr	r3, [r4, #4]
 8003e46:	6123      	str	r3, [r4, #16]
 8003e48:	2300      	movs	r3, #0
 8003e4a:	9a04      	ldr	r2, [sp, #16]
 8003e4c:	7013      	strb	r3, [r2, #0]
 8003e4e:	e7bf      	b.n	8003dd0 <_printf_i+0x154>
 8003e50:	6923      	ldr	r3, [r4, #16]
 8003e52:	0032      	movs	r2, r6
 8003e54:	9906      	ldr	r1, [sp, #24]
 8003e56:	9805      	ldr	r0, [sp, #20]
 8003e58:	9d07      	ldr	r5, [sp, #28]
 8003e5a:	47a8      	blx	r5
 8003e5c:	1c43      	adds	r3, r0, #1
 8003e5e:	d0c1      	beq.n	8003de4 <_printf_i+0x168>
 8003e60:	6823      	ldr	r3, [r4, #0]
 8003e62:	079b      	lsls	r3, r3, #30
 8003e64:	d415      	bmi.n	8003e92 <_printf_i+0x216>
 8003e66:	9b09      	ldr	r3, [sp, #36]	; 0x24
 8003e68:	68e0      	ldr	r0, [r4, #12]
 8003e6a:	4298      	cmp	r0, r3
 8003e6c:	dabc      	bge.n	8003de8 <_printf_i+0x16c>
 8003e6e:	0018      	movs	r0, r3
 8003e70:	e7ba      	b.n	8003de8 <_printf_i+0x16c>
 8003e72:	0022      	movs	r2, r4
 8003e74:	2301      	movs	r3, #1
 8003e76:	9906      	ldr	r1, [sp, #24]
 8003e78:	9805      	ldr	r0, [sp, #20]
 8003e7a:	9e07      	ldr	r6, [sp, #28]
 8003e7c:	3219      	adds	r2, #25
 8003e7e:	47b0      	blx	r6
 8003e80:	1c43      	adds	r3, r0, #1
 8003e82:	d0af      	beq.n	8003de4 <_printf_i+0x168>
 8003e84:	3501      	adds	r5, #1
 8003e86:	68e3      	ldr	r3, [r4, #12]
 8003e88:	9a09      	ldr	r2, [sp, #36]	; 0x24
 8003e8a:	1a9b      	subs	r3, r3, r2
 8003e8c:	42ab      	cmp	r3, r5
 8003e8e:	dcf0      	bgt.n	8003e72 <_printf_i+0x1f6>
 8003e90:	e7e9      	b.n	8003e66 <_printf_i+0x1ea>
 8003e92:	2500      	movs	r5, #0
 8003e94:	e7f7      	b.n	8003e86 <_printf_i+0x20a>
 8003e96:	46c0      	nop			; (mov r8, r8)
 8003e98:	08004adf 	.word	0x08004adf
 8003e9c:	08004af0 	.word	0x08004af0

08003ea0 <memchr>:
 8003ea0:	b2c9      	uxtb	r1, r1
 8003ea2:	1882      	adds	r2, r0, r2
 8003ea4:	4290      	cmp	r0, r2
 8003ea6:	d101      	bne.n	8003eac <memchr+0xc>
 8003ea8:	2000      	movs	r0, #0
 8003eaa:	4770      	bx	lr
 8003eac:	7803      	ldrb	r3, [r0, #0]
 8003eae:	428b      	cmp	r3, r1
 8003eb0:	d0fb      	beq.n	8003eaa <memchr+0xa>
 8003eb2:	3001      	adds	r0, #1
 8003eb4:	e7f6      	b.n	8003ea4 <memchr+0x4>

08003eb6 <memmove>:
 8003eb6:	b510      	push	{r4, lr}
 8003eb8:	4288      	cmp	r0, r1
 8003eba:	d902      	bls.n	8003ec2 <memmove+0xc>
 8003ebc:	188b      	adds	r3, r1, r2
 8003ebe:	4298      	cmp	r0, r3
 8003ec0:	d303      	bcc.n	8003eca <memmove+0x14>
 8003ec2:	2300      	movs	r3, #0
 8003ec4:	e007      	b.n	8003ed6 <memmove+0x20>
 8003ec6:	5c8b      	ldrb	r3, [r1, r2]
 8003ec8:	5483      	strb	r3, [r0, r2]
 8003eca:	3a01      	subs	r2, #1
 8003ecc:	d2fb      	bcs.n	8003ec6 <memmove+0x10>
 8003ece:	bd10      	pop	{r4, pc}
 8003ed0:	5ccc      	ldrb	r4, [r1, r3]
 8003ed2:	54c4      	strb	r4, [r0, r3]
 8003ed4:	3301      	adds	r3, #1
 8003ed6:	429a      	cmp	r2, r3
 8003ed8:	d1fa      	bne.n	8003ed0 <memmove+0x1a>
 8003eda:	e7f8      	b.n	8003ece <memmove+0x18>

08003edc <_free_r>:
 8003edc:	b570      	push	{r4, r5, r6, lr}
 8003ede:	0005      	movs	r5, r0
 8003ee0:	2900      	cmp	r1, #0
 8003ee2:	d010      	beq.n	8003f06 <_free_r+0x2a>
 8003ee4:	1f0c      	subs	r4, r1, #4
 8003ee6:	6823      	ldr	r3, [r4, #0]
 8003ee8:	2b00      	cmp	r3, #0
 8003eea:	da00      	bge.n	8003eee <_free_r+0x12>
 8003eec:	18e4      	adds	r4, r4, r3
 8003eee:	0028      	movs	r0, r5
 8003ef0:	f000 f8d4 	bl	800409c <__malloc_lock>
 8003ef4:	4a1d      	ldr	r2, [pc, #116]	; (8003f6c <_free_r+0x90>)
 8003ef6:	6813      	ldr	r3, [r2, #0]
 8003ef8:	2b00      	cmp	r3, #0
 8003efa:	d105      	bne.n	8003f08 <_free_r+0x2c>
 8003efc:	6063      	str	r3, [r4, #4]
 8003efe:	6014      	str	r4, [r2, #0]
 8003f00:	0028      	movs	r0, r5
 8003f02:	f000 f8d3 	bl	80040ac <__malloc_unlock>
 8003f06:	bd70      	pop	{r4, r5, r6, pc}
 8003f08:	42a3      	cmp	r3, r4
 8003f0a:	d908      	bls.n	8003f1e <_free_r+0x42>
 8003f0c:	6821      	ldr	r1, [r4, #0]
 8003f0e:	1860      	adds	r0, r4, r1
 8003f10:	4283      	cmp	r3, r0
 8003f12:	d1f3      	bne.n	8003efc <_free_r+0x20>
 8003f14:	6818      	ldr	r0, [r3, #0]
 8003f16:	685b      	ldr	r3, [r3, #4]
 8003f18:	1841      	adds	r1, r0, r1
 8003f1a:	6021      	str	r1, [r4, #0]
 8003f1c:	e7ee      	b.n	8003efc <_free_r+0x20>
 8003f1e:	001a      	movs	r2, r3
 8003f20:	685b      	ldr	r3, [r3, #4]
 8003f22:	2b00      	cmp	r3, #0
 8003f24:	d001      	beq.n	8003f2a <_free_r+0x4e>
 8003f26:	42a3      	cmp	r3, r4
 8003f28:	d9f9      	bls.n	8003f1e <_free_r+0x42>
 8003f2a:	6811      	ldr	r1, [r2, #0]
 8003f2c:	1850      	adds	r0, r2, r1
 8003f2e:	42a0      	cmp	r0, r4
 8003f30:	d10b      	bne.n	8003f4a <_free_r+0x6e>
 8003f32:	6820      	ldr	r0, [r4, #0]
 8003f34:	1809      	adds	r1, r1, r0
 8003f36:	1850      	adds	r0, r2, r1
 8003f38:	6011      	str	r1, [r2, #0]
 8003f3a:	4283      	cmp	r3, r0
 8003f3c:	d1e0      	bne.n	8003f00 <_free_r+0x24>
 8003f3e:	6818      	ldr	r0, [r3, #0]
 8003f40:	685b      	ldr	r3, [r3, #4]
 8003f42:	1841      	adds	r1, r0, r1
 8003f44:	6011      	str	r1, [r2, #0]
 8003f46:	6053      	str	r3, [r2, #4]
 8003f48:	e7da      	b.n	8003f00 <_free_r+0x24>
 8003f4a:	42a0      	cmp	r0, r4
 8003f4c:	d902      	bls.n	8003f54 <_free_r+0x78>
 8003f4e:	230c      	movs	r3, #12
 8003f50:	602b      	str	r3, [r5, #0]
 8003f52:	e7d5      	b.n	8003f00 <_free_r+0x24>
 8003f54:	6821      	ldr	r1, [r4, #0]
 8003f56:	1860      	adds	r0, r4, r1
 8003f58:	4283      	cmp	r3, r0
 8003f5a:	d103      	bne.n	8003f64 <_free_r+0x88>
 8003f5c:	6818      	ldr	r0, [r3, #0]
 8003f5e:	685b      	ldr	r3, [r3, #4]
 8003f60:	1841      	adds	r1, r0, r1
 8003f62:	6021      	str	r1, [r4, #0]
 8003f64:	6063      	str	r3, [r4, #4]
 8003f66:	6054      	str	r4, [r2, #4]
 8003f68:	e7ca      	b.n	8003f00 <_free_r+0x24>
 8003f6a:	46c0      	nop			; (mov r8, r8)
 8003f6c:	200000c4 	.word	0x200000c4

08003f70 <_malloc_r>:
 8003f70:	b5f8      	push	{r3, r4, r5, r6, r7, lr}
 8003f72:	2303      	movs	r3, #3
 8003f74:	1ccd      	adds	r5, r1, #3
 8003f76:	439d      	bics	r5, r3
 8003f78:	3508      	adds	r5, #8
 8003f7a:	0006      	movs	r6, r0
 8003f7c:	2d0c      	cmp	r5, #12
 8003f7e:	d21f      	bcs.n	8003fc0 <_malloc_r+0x50>
 8003f80:	250c      	movs	r5, #12
 8003f82:	42a9      	cmp	r1, r5
 8003f84:	d81e      	bhi.n	8003fc4 <_malloc_r+0x54>
 8003f86:	0030      	movs	r0, r6
 8003f88:	f000 f888 	bl	800409c <__malloc_lock>
 8003f8c:	4925      	ldr	r1, [pc, #148]	; (8004024 <_malloc_r+0xb4>)
 8003f8e:	680a      	ldr	r2, [r1, #0]
 8003f90:	0014      	movs	r4, r2
 8003f92:	2c00      	cmp	r4, #0
 8003f94:	d11a      	bne.n	8003fcc <_malloc_r+0x5c>
 8003f96:	4f24      	ldr	r7, [pc, #144]	; (8004028 <_malloc_r+0xb8>)
 8003f98:	683b      	ldr	r3, [r7, #0]
 8003f9a:	2b00      	cmp	r3, #0
 8003f9c:	d104      	bne.n	8003fa8 <_malloc_r+0x38>
 8003f9e:	0021      	movs	r1, r4
 8003fa0:	0030      	movs	r0, r6
 8003fa2:	f000 f869 	bl	8004078 <_sbrk_r>
 8003fa6:	6038      	str	r0, [r7, #0]
 8003fa8:	0029      	movs	r1, r5
 8003faa:	0030      	movs	r0, r6
 8003fac:	f000 f864 	bl	8004078 <_sbrk_r>
 8003fb0:	1c43      	adds	r3, r0, #1
 8003fb2:	d12b      	bne.n	800400c <_malloc_r+0x9c>
 8003fb4:	230c      	movs	r3, #12
 8003fb6:	0030      	movs	r0, r6
 8003fb8:	6033      	str	r3, [r6, #0]
 8003fba:	f000 f877 	bl	80040ac <__malloc_unlock>
 8003fbe:	e003      	b.n	8003fc8 <_malloc_r+0x58>
 8003fc0:	2d00      	cmp	r5, #0
 8003fc2:	dade      	bge.n	8003f82 <_malloc_r+0x12>
 8003fc4:	230c      	movs	r3, #12
 8003fc6:	6033      	str	r3, [r6, #0]
 8003fc8:	2000      	movs	r0, #0
 8003fca:	bdf8      	pop	{r3, r4, r5, r6, r7, pc}
 8003fcc:	6823      	ldr	r3, [r4, #0]
 8003fce:	1b5b      	subs	r3, r3, r5
 8003fd0:	d419      	bmi.n	8004006 <_malloc_r+0x96>
 8003fd2:	2b0b      	cmp	r3, #11
 8003fd4:	d903      	bls.n	8003fde <_malloc_r+0x6e>
 8003fd6:	6023      	str	r3, [r4, #0]
 8003fd8:	18e4      	adds	r4, r4, r3
 8003fda:	6025      	str	r5, [r4, #0]
 8003fdc:	e003      	b.n	8003fe6 <_malloc_r+0x76>
 8003fde:	6863      	ldr	r3, [r4, #4]
 8003fe0:	42a2      	cmp	r2, r4
 8003fe2:	d10e      	bne.n	8004002 <_malloc_r+0x92>
 8003fe4:	600b      	str	r3, [r1, #0]
 8003fe6:	0030      	movs	r0, r6
 8003fe8:	f000 f860 	bl	80040ac <__malloc_unlock>
 8003fec:	0020      	movs	r0, r4
 8003fee:	2207      	movs	r2, #7
 8003ff0:	300b      	adds	r0, #11
 8003ff2:	1d23      	adds	r3, r4, #4
 8003ff4:	4390      	bics	r0, r2
 8003ff6:	1ac2      	subs	r2, r0, r3
 8003ff8:	4298      	cmp	r0, r3
 8003ffa:	d0e6      	beq.n	8003fca <_malloc_r+0x5a>
 8003ffc:	1a1b      	subs	r3, r3, r0
 8003ffe:	50a3      	str	r3, [r4, r2]
 8004000:	e7e3      	b.n	8003fca <_malloc_r+0x5a>
 8004002:	6053      	str	r3, [r2, #4]
 8004004:	e7ef      	b.n	8003fe6 <_malloc_r+0x76>
 8004006:	0022      	movs	r2, r4
 8004008:	6864      	ldr	r4, [r4, #4]
 800400a:	e7c2      	b.n	8003f92 <_malloc_r+0x22>
 800400c:	2303      	movs	r3, #3
 800400e:	1cc4      	adds	r4, r0, #3
 8004010:	439c      	bics	r4, r3
 8004012:	42a0      	cmp	r0, r4
 8004014:	d0e1      	beq.n	8003fda <_malloc_r+0x6a>
 8004016:	1a21      	subs	r1, r4, r0
 8004018:	0030      	movs	r0, r6
 800401a:	f000 f82d 	bl	8004078 <_sbrk_r>
 800401e:	1c43      	adds	r3, r0, #1
 8004020:	d1db      	bne.n	8003fda <_malloc_r+0x6a>
 8004022:	e7c7      	b.n	8003fb4 <_malloc_r+0x44>
 8004024:	200000c4 	.word	0x200000c4
 8004028:	200000c8 	.word	0x200000c8

0800402c <_realloc_r>:
 800402c:	b5f8      	push	{r3, r4, r5, r6, r7, lr}
 800402e:	0007      	movs	r7, r0
 8004030:	000d      	movs	r5, r1
 8004032:	0016      	movs	r6, r2
 8004034:	2900      	cmp	r1, #0
 8004036:	d105      	bne.n	8004044 <_realloc_r+0x18>
 8004038:	0011      	movs	r1, r2
 800403a:	f7ff ff99 	bl	8003f70 <_malloc_r>
 800403e:	0004      	movs	r4, r0
 8004040:	0020      	movs	r0, r4
 8004042:	bdf8      	pop	{r3, r4, r5, r6, r7, pc}
 8004044:	2a00      	cmp	r2, #0
 8004046:	d103      	bne.n	8004050 <_realloc_r+0x24>
 8004048:	f7ff ff48 	bl	8003edc <_free_r>
 800404c:	0034      	movs	r4, r6
 800404e:	e7f7      	b.n	8004040 <_realloc_r+0x14>
 8004050:	f000 f834 	bl	80040bc <_malloc_usable_size_r>
 8004054:	002c      	movs	r4, r5
 8004056:	42b0      	cmp	r0, r6
 8004058:	d2f2      	bcs.n	8004040 <_realloc_r+0x14>
 800405a:	0031      	movs	r1, r6
 800405c:	0038      	movs	r0, r7
 800405e:	f7ff ff87 	bl	8003f70 <_malloc_r>
 8004062:	1e04      	subs	r4, r0, #0
 8004064:	d0ec      	beq.n	8004040 <_realloc_r+0x14>
 8004066:	0029      	movs	r1, r5
 8004068:	0032      	movs	r2, r6
 800406a:	f7ff fbed 	bl	8003848 <memcpy>
 800406e:	0029      	movs	r1, r5
 8004070:	0038      	movs	r0, r7
 8004072:	f7ff ff33 	bl	8003edc <_free_r>
 8004076:	e7e3      	b.n	8004040 <_realloc_r+0x14>

08004078 <_sbrk_r>:
 8004078:	2300      	movs	r3, #0
 800407a:	b570      	push	{r4, r5, r6, lr}
 800407c:	4d06      	ldr	r5, [pc, #24]	; (8004098 <_sbrk_r+0x20>)
 800407e:	0004      	movs	r4, r0
 8004080:	0008      	movs	r0, r1
 8004082:	602b      	str	r3, [r5, #0]
 8004084:	f7fd fad4 	bl	8001630 <_sbrk>
 8004088:	1c43      	adds	r3, r0, #1
 800408a:	d103      	bne.n	8004094 <_sbrk_r+0x1c>
 800408c:	682b      	ldr	r3, [r5, #0]
 800408e:	2b00      	cmp	r3, #0
 8004090:	d000      	beq.n	8004094 <_sbrk_r+0x1c>
 8004092:	6023      	str	r3, [r4, #0]
 8004094:	bd70      	pop	{r4, r5, r6, pc}
 8004096:	46c0      	nop			; (mov r8, r8)
 8004098:	20000268 	.word	0x20000268

0800409c <__malloc_lock>:
 800409c:	b510      	push	{r4, lr}
 800409e:	4802      	ldr	r0, [pc, #8]	; (80040a8 <__malloc_lock+0xc>)
 80040a0:	f000 f814 	bl	80040cc <__retarget_lock_acquire_recursive>
 80040a4:	bd10      	pop	{r4, pc}
 80040a6:	46c0      	nop			; (mov r8, r8)
 80040a8:	20000270 	.word	0x20000270

080040ac <__malloc_unlock>:
 80040ac:	b510      	push	{r4, lr}
 80040ae:	4802      	ldr	r0, [pc, #8]	; (80040b8 <__malloc_unlock+0xc>)
 80040b0:	f000 f80d 	bl	80040ce <__retarget_lock_release_recursive>
 80040b4:	bd10      	pop	{r4, pc}
 80040b6:	46c0      	nop			; (mov r8, r8)
 80040b8:	20000270 	.word	0x20000270

080040bc <_malloc_usable_size_r>:
 80040bc:	1f0b      	subs	r3, r1, #4
 80040be:	681b      	ldr	r3, [r3, #0]
 80040c0:	1f18      	subs	r0, r3, #4
 80040c2:	2b00      	cmp	r3, #0
 80040c4:	da01      	bge.n	80040ca <_malloc_usable_size_r+0xe>
 80040c6:	580b      	ldr	r3, [r1, r0]
 80040c8:	18c0      	adds	r0, r0, r3
 80040ca:	4770      	bx	lr

080040cc <__retarget_lock_acquire_recursive>:
 80040cc:	4770      	bx	lr

080040ce <__retarget_lock_release_recursive>:
 80040ce:	4770      	bx	lr

080040d0 <_init>:
 80040d0:	b5f8      	push	{r3, r4, r5, r6, r7, lr}
 80040d2:	46c0      	nop			; (mov r8, r8)
 80040d4:	bcf8      	pop	{r3, r4, r5, r6, r7}
 80040d6:	bc08      	pop	{r3}
 80040d8:	469e      	mov	lr, r3
 80040da:	4770      	bx	lr

080040dc <_fini>:
 80040dc:	b5f8      	push	{r3, r4, r5, r6, r7, lr}
 80040de:	46c0      	nop			; (mov r8, r8)
 80040e0:	bcf8      	pop	{r3, r4, r5, r6, r7}
 80040e2:	bc08      	pop	{r3}
 80040e4:	469e      	mov	lr, r3
 80040e6:	4770      	bx	lr
